
The Buttoner.elf:     file format elf32-littlearm

Sections:
Idx Name          Size      VMA       LMA       File off  Algn
  0 .isr_vector   000000c0  08000000  08000000  00001000  2**0
                  CONTENTS, ALLOC, LOAD, READONLY, DATA
  1 .text         00002a78  080000c0  080000c0  000010c0  2**2
                  CONTENTS, ALLOC, LOAD, READONLY, CODE
  2 .rodata       00000304  08002b38  08002b38  00003b38  2**2
                  CONTENTS, ALLOC, LOAD, READONLY, DATA
  3 .ARM.extab    00000000  08002e3c  08002e3c  00004178  2**0
                  CONTENTS
  4 .ARM          00000000  08002e3c  08002e3c  00004178  2**0
                  CONTENTS
  5 .preinit_array 00000000  08002e3c  08002e3c  00004178  2**0
                  CONTENTS, ALLOC, LOAD, DATA
  6 .init_array   00000004  08002e3c  08002e3c  00003e3c  2**2
                  CONTENTS, ALLOC, LOAD, READONLY, DATA
  7 .fini_array   00000004  08002e40  08002e40  00003e40  2**2
                  CONTENTS, ALLOC, LOAD, READONLY, DATA
  8 .data         00000178  20000000  08002e44  00004000  2**2
                  CONTENTS, ALLOC, LOAD, DATA
  9 .bss          000000c8  20000178  08002fbc  00004178  2**2
                  ALLOC
 10 ._user_heap_stack 00000600  20000240  08002fbc  00004240  2**0
                  ALLOC
 11 .ARM.attributes 00000028  00000000  00000000  00004178  2**0
                  CONTENTS, READONLY
 12 .debug_info   00006eb4  00000000  00000000  000041a0  2**0
                  CONTENTS, READONLY, DEBUGGING, OCTETS
 13 .debug_abbrev 00001798  00000000  00000000  0000b054  2**0
                  CONTENTS, READONLY, DEBUGGING, OCTETS
 14 .debug_aranges 000005b0  00000000  00000000  0000c7f0  2**3
                  CONTENTS, READONLY, DEBUGGING, OCTETS
 15 .debug_rnglists 00000437  00000000  00000000  0000cda0  2**0
                  CONTENTS, READONLY, DEBUGGING, OCTETS
 16 .debug_macro  00002412  00000000  00000000  0000d1d7  2**0
                  CONTENTS, READONLY, DEBUGGING, OCTETS
 17 .debug_line   00007580  00000000  00000000  0000f5e9  2**0
                  CONTENTS, READONLY, DEBUGGING, OCTETS
 18 .debug_str    00086041  00000000  00000000  00016b69  2**0
                  CONTENTS, READONLY, DEBUGGING, OCTETS
 19 .comment      00000043  00000000  00000000  0009cbaa  2**0
                  CONTENTS, READONLY
 20 .debug_frame  00001330  00000000  00000000  0009cbf0  2**2
                  CONTENTS, READONLY, DEBUGGING, OCTETS
 21 .debug_line_str 00000064  00000000  00000000  0009df20  2**0
                  CONTENTS, READONLY, DEBUGGING, OCTETS

Disassembly of section .text:

080000c0 <__do_global_dtors_aux>:
 80000c0:	b510      	push	{r4, lr}
 80000c2:	4c06      	ldr	r4, [pc, #24]	@ (80000dc <__do_global_dtors_aux+0x1c>)
 80000c4:	7823      	ldrb	r3, [r4, #0]
 80000c6:	2b00      	cmp	r3, #0
 80000c8:	d107      	bne.n	80000da <__do_global_dtors_aux+0x1a>
 80000ca:	4b05      	ldr	r3, [pc, #20]	@ (80000e0 <__do_global_dtors_aux+0x20>)
 80000cc:	2b00      	cmp	r3, #0
 80000ce:	d002      	beq.n	80000d6 <__do_global_dtors_aux+0x16>
 80000d0:	4804      	ldr	r0, [pc, #16]	@ (80000e4 <__do_global_dtors_aux+0x24>)
 80000d2:	e000      	b.n	80000d6 <__do_global_dtors_aux+0x16>
 80000d4:	bf00      	nop
 80000d6:	2301      	movs	r3, #1
 80000d8:	7023      	strb	r3, [r4, #0]
 80000da:	bd10      	pop	{r4, pc}
 80000dc:	20000178 	.word	0x20000178
 80000e0:	00000000 	.word	0x00000000
 80000e4:	08002b20 	.word	0x08002b20

080000e8 <frame_dummy>:
 80000e8:	4b04      	ldr	r3, [pc, #16]	@ (80000fc <frame_dummy+0x14>)
 80000ea:	b510      	push	{r4, lr}
 80000ec:	2b00      	cmp	r3, #0
 80000ee:	d003      	beq.n	80000f8 <frame_dummy+0x10>
 80000f0:	4903      	ldr	r1, [pc, #12]	@ (8000100 <frame_dummy+0x18>)
 80000f2:	4804      	ldr	r0, [pc, #16]	@ (8000104 <frame_dummy+0x1c>)
 80000f4:	e000      	b.n	80000f8 <frame_dummy+0x10>
 80000f6:	bf00      	nop
 80000f8:	bd10      	pop	{r4, pc}
 80000fa:	46c0      	nop			@ (mov r8, r8)
 80000fc:	00000000 	.word	0x00000000
 8000100:	2000017c 	.word	0x2000017c
 8000104:	08002b20 	.word	0x08002b20

08000108 <strlen>:
 8000108:	2300      	movs	r3, #0
 800010a:	5cc2      	ldrb	r2, [r0, r3]
 800010c:	3301      	adds	r3, #1
 800010e:	2a00      	cmp	r2, #0
 8000110:	d1fb      	bne.n	800010a <strlen+0x2>
 8000112:	1e58      	subs	r0, r3, #1
 8000114:	4770      	bx	lr
	...

08000118 <__udivsi3>:
 8000118:	2200      	movs	r2, #0
 800011a:	0843      	lsrs	r3, r0, #1
 800011c:	428b      	cmp	r3, r1
 800011e:	d374      	bcc.n	800020a <__udivsi3+0xf2>
 8000120:	0903      	lsrs	r3, r0, #4
 8000122:	428b      	cmp	r3, r1
 8000124:	d35f      	bcc.n	80001e6 <__udivsi3+0xce>
 8000126:	0a03      	lsrs	r3, r0, #8
 8000128:	428b      	cmp	r3, r1
 800012a:	d344      	bcc.n	80001b6 <__udivsi3+0x9e>
 800012c:	0b03      	lsrs	r3, r0, #12
 800012e:	428b      	cmp	r3, r1
 8000130:	d328      	bcc.n	8000184 <__udivsi3+0x6c>
 8000132:	0c03      	lsrs	r3, r0, #16
 8000134:	428b      	cmp	r3, r1
 8000136:	d30d      	bcc.n	8000154 <__udivsi3+0x3c>
 8000138:	22ff      	movs	r2, #255	@ 0xff
 800013a:	0209      	lsls	r1, r1, #8
 800013c:	ba12      	rev	r2, r2
 800013e:	0c03      	lsrs	r3, r0, #16
 8000140:	428b      	cmp	r3, r1
 8000142:	d302      	bcc.n	800014a <__udivsi3+0x32>
 8000144:	1212      	asrs	r2, r2, #8
 8000146:	0209      	lsls	r1, r1, #8
 8000148:	d065      	beq.n	8000216 <__udivsi3+0xfe>
 800014a:	0b03      	lsrs	r3, r0, #12
 800014c:	428b      	cmp	r3, r1
 800014e:	d319      	bcc.n	8000184 <__udivsi3+0x6c>
 8000150:	e000      	b.n	8000154 <__udivsi3+0x3c>
 8000152:	0a09      	lsrs	r1, r1, #8
 8000154:	0bc3      	lsrs	r3, r0, #15
 8000156:	428b      	cmp	r3, r1
 8000158:	d301      	bcc.n	800015e <__udivsi3+0x46>
 800015a:	03cb      	lsls	r3, r1, #15
 800015c:	1ac0      	subs	r0, r0, r3
 800015e:	4152      	adcs	r2, r2
 8000160:	0b83      	lsrs	r3, r0, #14
 8000162:	428b      	cmp	r3, r1
 8000164:	d301      	bcc.n	800016a <__udivsi3+0x52>
 8000166:	038b      	lsls	r3, r1, #14
 8000168:	1ac0      	subs	r0, r0, r3
 800016a:	4152      	adcs	r2, r2
 800016c:	0b43      	lsrs	r3, r0, #13
 800016e:	428b      	cmp	r3, r1
 8000170:	d301      	bcc.n	8000176 <__udivsi3+0x5e>
 8000172:	034b      	lsls	r3, r1, #13
 8000174:	1ac0      	subs	r0, r0, r3
 8000176:	4152      	adcs	r2, r2
 8000178:	0b03      	lsrs	r3, r0, #12
 800017a:	428b      	cmp	r3, r1
 800017c:	d301      	bcc.n	8000182 <__udivsi3+0x6a>
 800017e:	030b      	lsls	r3, r1, #12
 8000180:	1ac0      	subs	r0, r0, r3
 8000182:	4152      	adcs	r2, r2
 8000184:	0ac3      	lsrs	r3, r0, #11
 8000186:	428b      	cmp	r3, r1
 8000188:	d301      	bcc.n	800018e <__udivsi3+0x76>
 800018a:	02cb      	lsls	r3, r1, #11
 800018c:	1ac0      	subs	r0, r0, r3
 800018e:	4152      	adcs	r2, r2
 8000190:	0a83      	lsrs	r3, r0, #10
 8000192:	428b      	cmp	r3, r1
 8000194:	d301      	bcc.n	800019a <__udivsi3+0x82>
 8000196:	028b      	lsls	r3, r1, #10
 8000198:	1ac0      	subs	r0, r0, r3
 800019a:	4152      	adcs	r2, r2
 800019c:	0a43      	lsrs	r3, r0, #9
 800019e:	428b      	cmp	r3, r1
 80001a0:	d301      	bcc.n	80001a6 <__udivsi3+0x8e>
 80001a2:	024b      	lsls	r3, r1, #9
 80001a4:	1ac0      	subs	r0, r0, r3
 80001a6:	4152      	adcs	r2, r2
 80001a8:	0a03      	lsrs	r3, r0, #8
 80001aa:	428b      	cmp	r3, r1
 80001ac:	d301      	bcc.n	80001b2 <__udivsi3+0x9a>
 80001ae:	020b      	lsls	r3, r1, #8
 80001b0:	1ac0      	subs	r0, r0, r3
 80001b2:	4152      	adcs	r2, r2
 80001b4:	d2cd      	bcs.n	8000152 <__udivsi3+0x3a>
 80001b6:	09c3      	lsrs	r3, r0, #7
 80001b8:	428b      	cmp	r3, r1
 80001ba:	d301      	bcc.n	80001c0 <__udivsi3+0xa8>
 80001bc:	01cb      	lsls	r3, r1, #7
 80001be:	1ac0      	subs	r0, r0, r3
 80001c0:	4152      	adcs	r2, r2
 80001c2:	0983      	lsrs	r3, r0, #6
 80001c4:	428b      	cmp	r3, r1
 80001c6:	d301      	bcc.n	80001cc <__udivsi3+0xb4>
 80001c8:	018b      	lsls	r3, r1, #6
 80001ca:	1ac0      	subs	r0, r0, r3
 80001cc:	4152      	adcs	r2, r2
 80001ce:	0943      	lsrs	r3, r0, #5
 80001d0:	428b      	cmp	r3, r1
 80001d2:	d301      	bcc.n	80001d8 <__udivsi3+0xc0>
 80001d4:	014b      	lsls	r3, r1, #5
 80001d6:	1ac0      	subs	r0, r0, r3
 80001d8:	4152      	adcs	r2, r2
 80001da:	0903      	lsrs	r3, r0, #4
 80001dc:	428b      	cmp	r3, r1
 80001de:	d301      	bcc.n	80001e4 <__udivsi3+0xcc>
 80001e0:	010b      	lsls	r3, r1, #4
 80001e2:	1ac0      	subs	r0, r0, r3
 80001e4:	4152      	adcs	r2, r2
 80001e6:	08c3      	lsrs	r3, r0, #3
 80001e8:	428b      	cmp	r3, r1
 80001ea:	d301      	bcc.n	80001f0 <__udivsi3+0xd8>
 80001ec:	00cb      	lsls	r3, r1, #3
 80001ee:	1ac0      	subs	r0, r0, r3
 80001f0:	4152      	adcs	r2, r2
 80001f2:	0883      	lsrs	r3, r0, #2
 80001f4:	428b      	cmp	r3, r1
 80001f6:	d301      	bcc.n	80001fc <__udivsi3+0xe4>
 80001f8:	008b      	lsls	r3, r1, #2
 80001fa:	1ac0      	subs	r0, r0, r3
 80001fc:	4152      	adcs	r2, r2
 80001fe:	0843      	lsrs	r3, r0, #1
 8000200:	428b      	cmp	r3, r1
 8000202:	d301      	bcc.n	8000208 <__udivsi3+0xf0>
 8000204:	004b      	lsls	r3, r1, #1
 8000206:	1ac0      	subs	r0, r0, r3
 8000208:	4152      	adcs	r2, r2
 800020a:	1a41      	subs	r1, r0, r1
 800020c:	d200      	bcs.n	8000210 <__udivsi3+0xf8>
 800020e:	4601      	mov	r1, r0
 8000210:	4152      	adcs	r2, r2
 8000212:	4610      	mov	r0, r2
 8000214:	4770      	bx	lr
 8000216:	e7ff      	b.n	8000218 <__udivsi3+0x100>
 8000218:	b501      	push	{r0, lr}
 800021a:	2000      	movs	r0, #0
 800021c:	f000 f806 	bl	800022c <__aeabi_idiv0>
 8000220:	bd02      	pop	{r1, pc}
 8000222:	46c0      	nop			@ (mov r8, r8)

08000224 <__aeabi_uidivmod>:
 8000224:	2900      	cmp	r1, #0
 8000226:	d0f7      	beq.n	8000218 <__udivsi3+0x100>
 8000228:	e776      	b.n	8000118 <__udivsi3>
 800022a:	4770      	bx	lr

0800022c <__aeabi_idiv0>:
 800022c:	4770      	bx	lr
 800022e:	46c0      	nop			@ (mov r8, r8)

08000230 <NMI_Handler>:
/******************************************************************************/
/**
  * @brief This function handles Non maskable interrupt.
  */
void NMI_Handler(void)
{
 8000230:	b580      	push	{r7, lr}
 8000232:	af00      	add	r7, sp, #0
  /* USER CODE BEGIN NonMaskableInt_IRQn 0 */

  /* USER CODE END NonMaskableInt_IRQn 0 */
  /* USER CODE BEGIN NonMaskableInt_IRQn 1 */
   while (1)
 8000234:	46c0      	nop			@ (mov r8, r8)
 8000236:	e7fd      	b.n	8000234 <NMI_Handler+0x4>

08000238 <HardFault_Handler>:

/**
  * @brief This function handles Hard fault interrupt.
  */
void HardFault_Handler(void)
{
 8000238:	b580      	push	{r7, lr}
 800023a:	af00      	add	r7, sp, #0
  /* USER CODE BEGIN HardFault_IRQn 0 */

  /* USER CODE END HardFault_IRQn 0 */
  while (1)
 800023c:	46c0      	nop			@ (mov r8, r8)
 800023e:	e7fd      	b.n	800023c <HardFault_Handler+0x4>

08000240 <SVC_Handler>:

/**
  * @brief This function handles System service call via SWI instruction.
  */
void SVC_Handler(void)
{
 8000240:	b580      	push	{r7, lr}
 8000242:	af00      	add	r7, sp, #0

  /* USER CODE END SVCall_IRQn 0 */
  /* USER CODE BEGIN SVCall_IRQn 1 */

  /* USER CODE END SVCall_IRQn 1 */
}
 8000244:	46c0      	nop			@ (mov r8, r8)
 8000246:	46bd      	mov	sp, r7
 8000248:	bd80      	pop	{r7, pc}

0800024a <PendSV_Handler>:

/**
  * @brief This function handles Pendable request for system service.
  */
void PendSV_Handler(void)
{
 800024a:	b580      	push	{r7, lr}
 800024c:	af00      	add	r7, sp, #0

  /* USER CODE END PendSV_IRQn 0 */
  /* USER CODE BEGIN PendSV_IRQn 1 */

  /* USER CODE END PendSV_IRQn 1 */
}
 800024e:	46c0      	nop			@ (mov r8, r8)
 8000250:	46bd      	mov	sp, r7
 8000252:	bd80      	pop	{r7, pc}

08000254 <SysTick_Handler>:

/**
  * @brief This function handles System tick timer.
  */
void SysTick_Handler(void)
{
 8000254:	b580      	push	{r7, lr}
 8000256:	af00      	add	r7, sp, #0
  /* USER CODE BEGIN SysTick_IRQn 0 */

  /* USER CODE END SysTick_IRQn 0 */
  HAL_IncTick();
 8000258:	f000 f85a 	bl	8000310 <HAL_IncTick>
  /* USER CODE BEGIN SysTick_IRQn 1 */

  /* USER CODE END SysTick_IRQn 1 */
}
 800025c:	46c0      	nop			@ (mov r8, r8)
 800025e:	46bd      	mov	sp, r7
 8000260:	bd80      	pop	{r7, pc}

08000262 <EXTI4_15_IRQHandler>:

/**
  * @brief This function handles EXTI line 4 to 15 interrupts.
  */
void EXTI4_15_IRQHandler(void)
{
 8000262:	b580      	push	{r7, lr}
 8000264:	af00      	add	r7, sp, #0
  /* USER CODE BEGIN EXTI4_15_IRQn 0 */

  /* USER CODE END EXTI4_15_IRQn 0 */
  BSP_PB_IRQHandler(BUTTON_USER);
 8000266:	2000      	movs	r0, #0
 8000268:	f000 f83a 	bl	80002e0 <BSP_PB_IRQHandler>
  /* USER CODE BEGIN EXTI4_15_IRQn 1 */

  /* USER CODE END EXTI4_15_IRQn 1 */
}
 800026c:	46c0      	nop			@ (mov r8, r8)
 800026e:	46bd      	mov	sp, r7
 8000270:	bd80      	pop	{r7, pc}
	...

08000274 <SystemInit>:
  * @brief  Setup the microcontroller system.
  * @param  None
  * @retval None
  */
void SystemInit(void)
{
 8000274:	b580      	push	{r7, lr}
 8000276:	af00      	add	r7, sp, #0
  
  /* Configure the Vector Table location add offset address ------------------*/
#ifdef VECT_TAB_SRAM
  SCB->VTOR = SRAM_BASE | VECT_TAB_OFFSET; /* Vector Table Relocation in Internal SRAM */
#else
  SCB->VTOR = FLASH_BASE | VECT_TAB_OFFSET; /* Vector Table Relocation in Internal FLASH */
 8000278:	4b03      	ldr	r3, [pc, #12]	@ (8000288 <SystemInit+0x14>)
 800027a:	2280      	movs	r2, #128	@ 0x80
 800027c:	0512      	lsls	r2, r2, #20
 800027e:	609a      	str	r2, [r3, #8]
#endif
}
 8000280:	46c0      	nop			@ (mov r8, r8)
 8000282:	46bd      	mov	sp, r7
 8000284:	bd80      	pop	{r7, pc}
 8000286:	46c0      	nop			@ (mov r8, r8)
 8000288:	e000ed00 	.word	0xe000ed00

0800028c <Reset_Handler>:

  .section .text.Reset_Handler
  .weak Reset_Handler
  .type Reset_Handler, %function
Reset_Handler:
  ldr   r0, =_estack
 800028c:	480d      	ldr	r0, [pc, #52]	@ (80002c4 <LoopForever+0x2>)
  mov   sp, r0          /* set stack pointer */
 800028e:	4685      	mov	sp, r0
/* Call the clock system initialization function.*/
  bl  SystemInit
 8000290:	f7ff fff0 	bl	8000274 <SystemInit>

/* Copy the data segment initializers from flash to SRAM */
  movs r1, #0
 8000294:	2100      	movs	r1, #0
  b LoopCopyDataInit
 8000296:	e003      	b.n	80002a0 <LoopCopyDataInit>

08000298 <CopyDataInit>:

CopyDataInit:
  ldr r3, =_sidata
 8000298:	4b0b      	ldr	r3, [pc, #44]	@ (80002c8 <LoopForever+0x6>)
  ldr r3, [r3, r1]
 800029a:	585b      	ldr	r3, [r3, r1]
  str r3, [r0, r1]
 800029c:	5043      	str	r3, [r0, r1]
  adds r1, r1, #4
 800029e:	3104      	adds	r1, #4

080002a0 <LoopCopyDataInit>:

LoopCopyDataInit:
  ldr r0, =_sdata
 80002a0:	480a      	ldr	r0, [pc, #40]	@ (80002cc <LoopForever+0xa>)
  ldr r3, =_edata
 80002a2:	4b0b      	ldr	r3, [pc, #44]	@ (80002d0 <LoopForever+0xe>)
  adds r2, r0, r1
 80002a4:	1842      	adds	r2, r0, r1
  cmp r2, r3
 80002a6:	429a      	cmp	r2, r3
  bcc CopyDataInit
 80002a8:	d3f6      	bcc.n	8000298 <CopyDataInit>
  ldr r2, =_sbss
 80002aa:	4a0a      	ldr	r2, [pc, #40]	@ (80002d4 <LoopForever+0x12>)
  b LoopFillZerobss
 80002ac:	e002      	b.n	80002b4 <LoopFillZerobss>

080002ae <FillZerobss>:
/* Zero fill the bss segment. */
FillZerobss:
  movs r3, #0
 80002ae:	2300      	movs	r3, #0
  str  r3, [r2]
 80002b0:	6013      	str	r3, [r2, #0]
  adds r2, r2, #4
 80002b2:	3204      	adds	r2, #4

080002b4 <LoopFillZerobss>:


LoopFillZerobss:
  ldr r3, = _ebss
 80002b4:	4b08      	ldr	r3, [pc, #32]	@ (80002d8 <LoopForever+0x16>)
  cmp r2, r3
 80002b6:	429a      	cmp	r2, r3
  bcc FillZerobss
 80002b8:	d3f9      	bcc.n	80002ae <FillZerobss>


/* Call static constructors */
  bl __libc_init_array
 80002ba:	f002 fc03 	bl	8002ac4 <__libc_init_array>
/* Call the application's entry point.*/
  bl main
 80002be:	f000 f933 	bl	8000528 <main>

080002c2 <LoopForever>:

LoopForever:
    b LoopForever
 80002c2:	e7fe      	b.n	80002c2 <LoopForever>
  ldr   r0, =_estack
 80002c4:	20006000 	.word	0x20006000
  ldr r3, =_sidata
 80002c8:	08002e44 	.word	0x08002e44
  ldr r0, =_sdata
 80002cc:	20000000 	.word	0x20000000
  ldr r3, =_edata
 80002d0:	20000178 	.word	0x20000178
  ldr r2, =_sbss
 80002d4:	20000178 	.word	0x20000178
  ldr r3, = _ebss
 80002d8:	20000240 	.word	0x20000240

080002dc <DMA1_Channel1_IRQHandler>:
 * @retval : None
*/
    .section .text.Default_Handler,"ax",%progbits
Default_Handler:
Infinite_Loop:
  b Infinite_Loop
 80002dc:	e7fe      	b.n	80002dc <DMA1_Channel1_IRQHandler>
	...

080002e0 <BSP_PB_IRQHandler>:
  * @brief  BSP Button IRQ handler
  * @param  Button Can only be BUTTON_USER
  * @retval None
  */
void BSP_PB_IRQHandler(Button_TypeDef Button)
{
 80002e0:	b580      	push	{r7, lr}
 80002e2:	b082      	sub	sp, #8
 80002e4:	af00      	add	r7, sp, #0
 80002e6:	0002      	movs	r2, r0
 80002e8:	1dfb      	adds	r3, r7, #7
 80002ea:	701a      	strb	r2, [r3, #0]
  HAL_EXTI_IRQHandler(&hpb_exti[Button]);
 80002ec:	1dfb      	adds	r3, r7, #7
 80002ee:	781a      	ldrb	r2, [r3, #0]
 80002f0:	0013      	movs	r3, r2
 80002f2:	005b      	lsls	r3, r3, #1
 80002f4:	189b      	adds	r3, r3, r2
 80002f6:	009b      	lsls	r3, r3, #2
 80002f8:	4a04      	ldr	r2, [pc, #16]	@ (800030c <BSP_PB_IRQHandler+0x2c>)
 80002fa:	189b      	adds	r3, r3, r2
 80002fc:	0018      	movs	r0, r3
 80002fe:	f000 f819 	bl	8000334 <HAL_EXTI_IRQHandler>
}
 8000302:	46c0      	nop			@ (mov r8, r8)
 8000304:	46bd      	mov	sp, r7
 8000306:	b002      	add	sp, #8
 8000308:	bd80      	pop	{r7, pc}
 800030a:	46c0      	nop			@ (mov r8, r8)
 800030c:	20000194 	.word	0x20000194

08000310 <HAL_IncTick>:
  * @note This function is declared as __weak to be overwritten in case of other
  *      implementations in user file.
  * @retval None
  */
__weak void HAL_IncTick(void)
{
 8000310:	b580      	push	{r7, lr}
 8000312:	af00      	add	r7, sp, #0
  uwTick += (uint32_t)uwTickFreq;
 8000314:	4b05      	ldr	r3, [pc, #20]	@ (800032c <HAL_IncTick+0x1c>)
 8000316:	781b      	ldrb	r3, [r3, #0]
 8000318:	001a      	movs	r2, r3
 800031a:	4b05      	ldr	r3, [pc, #20]	@ (8000330 <HAL_IncTick+0x20>)
 800031c:	681b      	ldr	r3, [r3, #0]
 800031e:	18d2      	adds	r2, r2, r3
 8000320:	4b03      	ldr	r3, [pc, #12]	@ (8000330 <HAL_IncTick+0x20>)
 8000322:	601a      	str	r2, [r3, #0]
}
 8000324:	46c0      	nop			@ (mov r8, r8)
 8000326:	46bd      	mov	sp, r7
 8000328:	bd80      	pop	{r7, pc}
 800032a:	46c0      	nop			@ (mov r8, r8)
 800032c:	20000000 	.word	0x20000000
 8000330:	200001a0 	.word	0x200001a0

08000334 <HAL_EXTI_IRQHandler>:
  * @brief  Handle EXTI interrupt request.
  * @param  hexti Exti handle.
  * @retval none.
  */
void HAL_EXTI_IRQHandler(const EXTI_HandleTypeDef *hexti)
{
 8000334:	b580      	push	{r7, lr}
 8000336:	b086      	sub	sp, #24
 8000338:	af00      	add	r7, sp, #0
 800033a:	6078      	str	r0, [r7, #4]
  uint32_t regval;
  uint32_t maskline;
  uint32_t offset;

  /* Compute line register offset and line mask */
  offset = ((hexti->Line & EXTI_REG_MASK) >> EXTI_REG_SHIFT);
 800033c:	687b      	ldr	r3, [r7, #4]
 800033e:	681b      	ldr	r3, [r3, #0]
 8000340:	0c1b      	lsrs	r3, r3, #16
 8000342:	2201      	movs	r2, #1
 8000344:	4013      	ands	r3, r2
 8000346:	617b      	str	r3, [r7, #20]
  maskline = (1UL << (hexti->Line & EXTI_PIN_MASK));
 8000348:	687b      	ldr	r3, [r7, #4]
 800034a:	681b      	ldr	r3, [r3, #0]
 800034c:	221f      	movs	r2, #31
 800034e:	4013      	ands	r3, r2
 8000350:	2201      	movs	r2, #1
 8000352:	409a      	lsls	r2, r3
 8000354:	0013      	movs	r3, r2
 8000356:	613b      	str	r3, [r7, #16]

  /* Get rising edge pending bit  */
  regaddr = (__IO uint32_t *)(&EXTI->RPR1 + (EXTI_CONFIG_OFFSET * offset));
 8000358:	697b      	ldr	r3, [r7, #20]
 800035a:	015b      	lsls	r3, r3, #5
 800035c:	4a18      	ldr	r2, [pc, #96]	@ (80003c0 <HAL_EXTI_IRQHandler+0x8c>)
 800035e:	4694      	mov	ip, r2
 8000360:	4463      	add	r3, ip
 8000362:	60fb      	str	r3, [r7, #12]
  regval = (*regaddr & maskline);
 8000364:	68fb      	ldr	r3, [r7, #12]
 8000366:	681a      	ldr	r2, [r3, #0]
 8000368:	693b      	ldr	r3, [r7, #16]
 800036a:	4013      	ands	r3, r2
 800036c:	60bb      	str	r3, [r7, #8]

  if (regval != 0U)
 800036e:	68bb      	ldr	r3, [r7, #8]
 8000370:	2b00      	cmp	r3, #0
 8000372:	d009      	beq.n	8000388 <HAL_EXTI_IRQHandler+0x54>
  {
    /* Clear pending bit */
    *regaddr = maskline;
 8000374:	68fb      	ldr	r3, [r7, #12]
 8000376:	693a      	ldr	r2, [r7, #16]
 8000378:	601a      	str	r2, [r3, #0]

    /* Call rising callback */
    if (hexti->RisingCallback != NULL)
 800037a:	687b      	ldr	r3, [r7, #4]
 800037c:	685b      	ldr	r3, [r3, #4]
 800037e:	2b00      	cmp	r3, #0
 8000380:	d002      	beq.n	8000388 <HAL_EXTI_IRQHandler+0x54>
    {
      hexti->RisingCallback();
 8000382:	687b      	ldr	r3, [r7, #4]
 8000384:	685b      	ldr	r3, [r3, #4]
 8000386:	4798      	blx	r3
    }
  }

  /* Get falling edge pending bit  */
  regaddr = (__IO uint32_t *)(&EXTI->FPR1 + (EXTI_CONFIG_OFFSET * offset));
 8000388:	697b      	ldr	r3, [r7, #20]
 800038a:	015b      	lsls	r3, r3, #5
 800038c:	4a0d      	ldr	r2, [pc, #52]	@ (80003c4 <HAL_EXTI_IRQHandler+0x90>)
 800038e:	4694      	mov	ip, r2
 8000390:	4463      	add	r3, ip
 8000392:	60fb      	str	r3, [r7, #12]
  regval = (*regaddr & maskline);
 8000394:	68fb      	ldr	r3, [r7, #12]
 8000396:	681a      	ldr	r2, [r3, #0]
 8000398:	693b      	ldr	r3, [r7, #16]
 800039a:	4013      	ands	r3, r2
 800039c:	60bb      	str	r3, [r7, #8]

  if (regval != 0U)
 800039e:	68bb      	ldr	r3, [r7, #8]
 80003a0:	2b00      	cmp	r3, #0
 80003a2:	d009      	beq.n	80003b8 <HAL_EXTI_IRQHandler+0x84>
  {
    /* Clear pending bit */
    *regaddr = maskline;
 80003a4:	68fb      	ldr	r3, [r7, #12]
 80003a6:	693a      	ldr	r2, [r7, #16]
 80003a8:	601a      	str	r2, [r3, #0]

    /* Call rising callback */
    if (hexti->FallingCallback != NULL)
 80003aa:	687b      	ldr	r3, [r7, #4]
 80003ac:	689b      	ldr	r3, [r3, #8]
 80003ae:	2b00      	cmp	r3, #0
 80003b0:	d002      	beq.n	80003b8 <HAL_EXTI_IRQHandler+0x84>
    {
      hexti->FallingCallback();
 80003b2:	687b      	ldr	r3, [r7, #4]
 80003b4:	689b      	ldr	r3, [r3, #8]
 80003b6:	4798      	blx	r3
    }
  }
}
 80003b8:	46c0      	nop			@ (mov r8, r8)
 80003ba:	46bd      	mov	sp, r7
 80003bc:	b006      	add	sp, #24
 80003be:	bd80      	pop	{r7, pc}
 80003c0:	4002180c 	.word	0x4002180c
 80003c4:	40021810 	.word	0x40021810

080003c8 <ClockSetup>:
 * in a header file.
 */

// minimal clock setup required for USB device operation
static inline void ClockSetup(void)
{
 80003c8:	b580      	push	{r7, lr}
 80003ca:	af00      	add	r7, sp, #0
	// set HCLK to 48 MHz HSI48 synchronized to SOF*****************************
	// PWR Range 1 is the default - ok for 64 MHz
	RCC->CR |= RCC_CR_HSIUSB48ON;
 80003cc:	4b13      	ldr	r3, [pc, #76]	@ (800041c <ClockSetup+0x54>)
 80003ce:	681a      	ldr	r2, [r3, #0]
 80003d0:	4b12      	ldr	r3, [pc, #72]	@ (800041c <ClockSetup+0x54>)
 80003d2:	2180      	movs	r1, #128	@ 0x80
 80003d4:	03c9      	lsls	r1, r1, #15
 80003d6:	430a      	orrs	r2, r1
 80003d8:	601a      	str	r2, [r3, #0]
	FLASH->ACR |= FLASH_ACR_PRFTEN | 1u << FLASH_ACR_LATENCY_Pos; // 1 WS up to 48 MHz
 80003da:	4b11      	ldr	r3, [pc, #68]	@ (8000420 <ClockSetup+0x58>)
 80003dc:	681a      	ldr	r2, [r3, #0]
 80003de:	4b10      	ldr	r3, [pc, #64]	@ (8000420 <ClockSetup+0x58>)
 80003e0:	2102      	movs	r1, #2
 80003e2:	31ff      	adds	r1, #255	@ 0xff
 80003e4:	430a      	orrs	r2, r1
 80003e6:	601a      	str	r2, [r3, #0]
    RCC->APBENR1 |= RCC_APBENR1_CRSEN;
 80003e8:	4b0c      	ldr	r3, [pc, #48]	@ (800041c <ClockSetup+0x54>)
 80003ea:	6bda      	ldr	r2, [r3, #60]	@ 0x3c
 80003ec:	4b0b      	ldr	r3, [pc, #44]	@ (800041c <ClockSetup+0x54>)
 80003ee:	2180      	movs	r1, #128	@ 0x80
 80003f0:	0249      	lsls	r1, r1, #9
 80003f2:	430a      	orrs	r2, r1
 80003f4:	63da      	str	r2, [r3, #60]	@ 0x3c
    CRS->CR |= CRS_CR_AUTOTRIMEN | CRS_CR_CEN;	// sync HSI48 to USB SOF
 80003f6:	4b0b      	ldr	r3, [pc, #44]	@ (8000424 <ClockSetup+0x5c>)
 80003f8:	681a      	ldr	r2, [r3, #0]
 80003fa:	4b0a      	ldr	r3, [pc, #40]	@ (8000424 <ClockSetup+0x5c>)
 80003fc:	2160      	movs	r1, #96	@ 0x60
 80003fe:	430a      	orrs	r2, r1
 8000400:	601a      	str	r2, [r3, #0]

	while (~RCC->CR & RCC_CR_HSIUSB48RDY);
 8000402:	46c0      	nop			@ (mov r8, r8)
 8000404:	4b05      	ldr	r3, [pc, #20]	@ (800041c <ClockSetup+0x54>)
 8000406:	681a      	ldr	r2, [r3, #0]
 8000408:	2380      	movs	r3, #128	@ 0x80
 800040a:	041b      	lsls	r3, r3, #16
 800040c:	4013      	ands	r3, r2
 800040e:	d0f9      	beq.n	8000404 <ClockSetup+0x3c>
	RCC->CFGR = RCC_CFGR_SW_HSIUSB;
 8000410:	4b02      	ldr	r3, [pc, #8]	@ (800041c <ClockSetup+0x54>)
 8000412:	2202      	movs	r2, #2
 8000414:	609a      	str	r2, [r3, #8]
}
 8000416:	46c0      	nop			@ (mov r8, r8)
 8000418:	46bd      	mov	sp, r7
 800041a:	bd80      	pop	{r7, pc}
 800041c:	40021000 	.word	0x40021000
 8000420:	40022000 	.word	0x40022000
 8000424:	40006c00 	.word	0x40006c00

08000428 <USBhwSetup>:

// USB peripheral enable & pin configuration
static inline void USBhwSetup(void)
{
 8000428:	b580      	push	{r7, lr}
 800042a:	af00      	add	r7, sp, #0
    RCC->APBENR1 |= RCC_APBENR1_USBEN;
 800042c:	4b04      	ldr	r3, [pc, #16]	@ (8000440 <USBhwSetup+0x18>)
 800042e:	6bda      	ldr	r2, [r3, #60]	@ 0x3c
 8000430:	4b03      	ldr	r3, [pc, #12]	@ (8000440 <USBhwSetup+0x18>)
 8000432:	2180      	movs	r1, #128	@ 0x80
 8000434:	0189      	lsls	r1, r1, #6
 8000436:	430a      	orrs	r2, r1
 8000438:	63da      	str	r2, [r3, #60]	@ 0x3c
	// With C0 series, MODER and OSPEEEDR value is "don't care" for USB data pins
}
 800043a:	46c0      	nop			@ (mov r8, r8)
 800043c:	46bd      	mov	sp, r7
 800043e:	bd80      	pop	{r7, pc}
 8000440:	40021000 	.word	0x40021000

08000444 <LED_Btn_Setup>:

// board LED/Button setup needed for HID demo
static inline void LED_Btn_Setup(void)
{
 8000444:	b580      	push	{r7, lr}
 8000446:	af00      	add	r7, sp, #0
#ifdef LED_PORT
	RCC->IOENR |= RCC_IOENR_GPIOEN(LED_PORT);
 8000448:	4b12      	ldr	r3, [pc, #72]	@ (8000494 <LED_Btn_Setup+0x50>)
 800044a:	6b5a      	ldr	r2, [r3, #52]	@ 0x34
 800044c:	4b11      	ldr	r3, [pc, #68]	@ (8000494 <LED_Btn_Setup+0x50>)
 800044e:	2101      	movs	r1, #1
 8000450:	430a      	orrs	r2, r1
 8000452:	635a      	str	r2, [r3, #52]	@ 0x34
	BF2F(LED_PORT->MODER, LED_BIT) = GPIO_MODER_OUT;
 8000454:	23a0      	movs	r3, #160	@ 0xa0
 8000456:	05db      	lsls	r3, r3, #23
 8000458:	681a      	ldr	r2, [r3, #0]
 800045a:	490f      	ldr	r1, [pc, #60]	@ (8000498 <LED_Btn_Setup+0x54>)
 800045c:	400a      	ands	r2, r1
 800045e:	2180      	movs	r1, #128	@ 0x80
 8000460:	00c9      	lsls	r1, r1, #3
 8000462:	430a      	orrs	r2, r1
 8000464:	601a      	str	r2, [r3, #0]
#endif
#ifdef BTN_PORT
	RCC->IOENR |= RCC_IOENR_GPIOEN(BTN_PORT);
 8000466:	4b0b      	ldr	r3, [pc, #44]	@ (8000494 <LED_Btn_Setup+0x50>)
 8000468:	6b5a      	ldr	r2, [r3, #52]	@ 0x34
 800046a:	4b0a      	ldr	r3, [pc, #40]	@ (8000494 <LED_Btn_Setup+0x50>)
 800046c:	2104      	movs	r1, #4
 800046e:	430a      	orrs	r2, r1
 8000470:	635a      	str	r2, [r3, #52]	@ 0x34
	BF2F(BTN_PORT->PUPDR, BTN_BIT) = GPIO_PUPDR_PU;	// Nucleo board button active low
 8000472:	4a0a      	ldr	r2, [pc, #40]	@ (800049c <LED_Btn_Setup+0x58>)
 8000474:	6813      	ldr	r3, [r2, #0]
 8000476:	490a      	ldr	r1, [pc, #40]	@ (80004a0 <LED_Btn_Setup+0x5c>)
 8000478:	400b      	ands	r3, r1
 800047a:	2180      	movs	r1, #128	@ 0x80
 800047c:	04c9      	lsls	r1, r1, #19
 800047e:	430b      	orrs	r3, r1
 8000480:	6013      	str	r3, [r2, #0]
	BF2F(BTN_PORT->MODER, BTN_BIT) = GPIO_MODER_IN;
 8000482:	4a08      	ldr	r2, [pc, #32]	@ (80004a4 <LED_Btn_Setup+0x60>)
 8000484:	6813      	ldr	r3, [r2, #0]
 8000486:	4906      	ldr	r1, [pc, #24]	@ (80004a0 <LED_Btn_Setup+0x5c>)
 8000488:	400b      	ands	r3, r1
 800048a:	6013      	str	r3, [r2, #0]
#endif
}
 800048c:	46c0      	nop			@ (mov r8, r8)
 800048e:	46bd      	mov	sp, r7
 8000490:	bd80      	pop	{r7, pc}
 8000492:	46c0      	nop			@ (mov r8, r8)
 8000494:	40021000 	.word	0x40021000
 8000498:	fffff3ff 	.word	0xfffff3ff
 800049c:	5000080c 	.word	0x5000080c
 80004a0:	f3ffffff 	.word	0xf3ffffff
 80004a4:	50000800 	.word	0x50000800

080004a8 <hwLED_Set>:

static inline void hwLED_Set(bool on)
{
 80004a8:	b580      	push	{r7, lr}
 80004aa:	b082      	sub	sp, #8
 80004ac:	af00      	add	r7, sp, #0
 80004ae:	0002      	movs	r2, r0
 80004b0:	1dfb      	adds	r3, r7, #7
 80004b2:	701a      	strb	r2, [r3, #0]
#ifdef LED_PORT
	LED_PORT->BSRR = on ? LED_MSK : LED_MSK << 16;
 80004b4:	1dfb      	adds	r3, r7, #7
 80004b6:	781b      	ldrb	r3, [r3, #0]
 80004b8:	2b00      	cmp	r3, #0
 80004ba:	d001      	beq.n	80004c0 <hwLED_Set+0x18>
 80004bc:	2220      	movs	r2, #32
 80004be:	e001      	b.n	80004c4 <hwLED_Set+0x1c>
 80004c0:	2380      	movs	r3, #128	@ 0x80
 80004c2:	039a      	lsls	r2, r3, #14
 80004c4:	23a0      	movs	r3, #160	@ 0xa0
 80004c6:	05db      	lsls	r3, r3, #23
 80004c8:	619a      	str	r2, [r3, #24]
#endif
}
 80004ca:	46c0      	nop			@ (mov r8, r8)
 80004cc:	46bd      	mov	sp, r7
 80004ce:	b002      	add	sp, #8
 80004d0:	bd80      	pop	{r7, pc}

080004d2 <LED_Set>:

#include "mcu_hw.h"		// in Example/Inc/<mcu_series> directory
#include "usb_app.h"	// in USBdevice/Inc

void LED_Set(bool on)
{
 80004d2:	b580      	push	{r7, lr}
 80004d4:	b082      	sub	sp, #8
 80004d6:	af00      	add	r7, sp, #0
 80004d8:	0002      	movs	r2, r0
 80004da:	1dfb      	adds	r3, r7, #7
 80004dc:	701a      	strb	r2, [r3, #0]
	hwLED_Set(on);
 80004de:	1dfb      	adds	r3, r7, #7
 80004e0:	781b      	ldrb	r3, [r3, #0]
 80004e2:	0018      	movs	r0, r3
 80004e4:	f7ff ffe0 	bl	80004a8 <hwLED_Set>
}
 80004e8:	46c0      	nop			@ (mov r8, r8)
 80004ea:	46bd      	mov	sp, r7
 80004ec:	b002      	add	sp, #8
 80004ee:	bd80      	pop	{r7, pc}

080004f0 <BtnGet>:

bool BtnGet(void)
{
 80004f0:	b580      	push	{r7, lr}
 80004f2:	af00      	add	r7, sp, #0
#ifdef BTN_PORT
	return BTN_DOWN;
 80004f4:	4b05      	ldr	r3, [pc, #20]	@ (800050c <BtnGet+0x1c>)
 80004f6:	691b      	ldr	r3, [r3, #16]
 80004f8:	43db      	mvns	r3, r3
 80004fa:	0b5b      	lsrs	r3, r3, #13
 80004fc:	2201      	movs	r2, #1
 80004fe:	4013      	ands	r3, r2
 8000500:	1e5a      	subs	r2, r3, #1
 8000502:	4193      	sbcs	r3, r2
 8000504:	b2db      	uxtb	r3, r3
#else
	return 0;
#endif
}
 8000506:	0018      	movs	r0, r3
 8000508:	46bd      	mov	sp, r7
 800050a:	bd80      	pop	{r7, pc}
 800050c:	50000800 	.word	0x50000800

08000510 <usbdev_main>:

// usbdev demo application
static void usbdev_main(void)
{
 8000510:	b580      	push	{r7, lr}
 8000512:	af00      	add	r7, sp, #0
	ClockSetup();	// Setup MCU and USB peripheral clock - may be replaced by CubeMX/HAL routine
 8000514:	f7ff ff58 	bl	80003c8 <ClockSetup>
	LED_Btn_Setup();
 8000518:	f7ff ff94 	bl	8000444 <LED_Btn_Setup>
	USBhwSetup();	// Turn on USB peripheral and setup its pins - may be replaced by CubeMX/HAL routine
 800051c:	f7ff ff84 	bl	8000428 <USBhwSetup>

	USBapp_Init();	// Initialize and start USB stack
 8000520:	f000 feae 	bl	8001280 <USBapp_Init>
	for (;;)
	{
#ifdef POLLED
		USBapp_poll();
#else
		__WFI();
 8000524:	bf30      	wfi
 8000526:	e7fd      	b.n	8000524 <usbdev_main+0x14>

08000528 <main>:
  *
  *	Defined as weak so that the full gbmUSBdev code with this demo
  *	may be included in the real application source code tree.
  */
__attribute__((weak)) int main(void)
{
 8000528:	b580      	push	{r7, lr}
 800052a:	af00      	add	r7, sp, #0
	usbdev_main();
 800052c:	f7ff fff0 	bl	8000510 <usbdev_main>
 8000530:	2300      	movs	r3, #0
}
 8000532:	0018      	movs	r0, r3
 8000534:	46bd      	mov	sp, r7
 8000536:	bd80      	pop	{r7, pc}

08000538 <__NVIC_EnableIRQ>:
  \details Enables a device specific interrupt in the NVIC interrupt controller.
  \param [in]      IRQn  Device specific interrupt number.
  \note    IRQn must not be negative.
 */
__STATIC_INLINE void __NVIC_EnableIRQ(IRQn_Type IRQn)
{
 8000538:	b580      	push	{r7, lr}
 800053a:	b082      	sub	sp, #8
 800053c:	af00      	add	r7, sp, #0
 800053e:	0002      	movs	r2, r0
 8000540:	1dfb      	adds	r3, r7, #7
 8000542:	701a      	strb	r2, [r3, #0]
  if ((int32_t)(IRQn) >= 0)
 8000544:	1dfb      	adds	r3, r7, #7
 8000546:	781b      	ldrb	r3, [r3, #0]
 8000548:	2b7f      	cmp	r3, #127	@ 0x7f
 800054a:	d809      	bhi.n	8000560 <__NVIC_EnableIRQ+0x28>
  {
    __COMPILER_BARRIER();
    NVIC->ISER[0U] = (uint32_t)(1UL << (((uint32_t)IRQn) & 0x1FUL));
 800054c:	1dfb      	adds	r3, r7, #7
 800054e:	781b      	ldrb	r3, [r3, #0]
 8000550:	001a      	movs	r2, r3
 8000552:	231f      	movs	r3, #31
 8000554:	401a      	ands	r2, r3
 8000556:	4b04      	ldr	r3, [pc, #16]	@ (8000568 <__NVIC_EnableIRQ+0x30>)
 8000558:	2101      	movs	r1, #1
 800055a:	4091      	lsls	r1, r2
 800055c:	000a      	movs	r2, r1
 800055e:	601a      	str	r2, [r3, #0]
    __COMPILER_BARRIER();
  }
}
 8000560:	46c0      	nop			@ (mov r8, r8)
 8000562:	46bd      	mov	sp, r7
 8000564:	b002      	add	sp, #8
 8000566:	bd80      	pop	{r7, pc}
 8000568:	e000e100 	.word	0xe000e100

0800056c <__NVIC_DisableIRQ>:
  \details Disables a device specific interrupt in the NVIC interrupt controller.
  \param [in]      IRQn  Device specific interrupt number.
  \note    IRQn must not be negative.
 */
__STATIC_INLINE void __NVIC_DisableIRQ(IRQn_Type IRQn)
{
 800056c:	b580      	push	{r7, lr}
 800056e:	b082      	sub	sp, #8
 8000570:	af00      	add	r7, sp, #0
 8000572:	0002      	movs	r2, r0
 8000574:	1dfb      	adds	r3, r7, #7
 8000576:	701a      	strb	r2, [r3, #0]
  if ((int32_t)(IRQn) >= 0)
 8000578:	1dfb      	adds	r3, r7, #7
 800057a:	781b      	ldrb	r3, [r3, #0]
 800057c:	2b7f      	cmp	r3, #127	@ 0x7f
 800057e:	d810      	bhi.n	80005a2 <__NVIC_DisableIRQ+0x36>
  {
    NVIC->ICER[0U] = (uint32_t)(1UL << (((uint32_t)IRQn) & 0x1FUL));
 8000580:	1dfb      	adds	r3, r7, #7
 8000582:	781b      	ldrb	r3, [r3, #0]
 8000584:	001a      	movs	r2, r3
 8000586:	231f      	movs	r3, #31
 8000588:	4013      	ands	r3, r2
 800058a:	4908      	ldr	r1, [pc, #32]	@ (80005ac <__NVIC_DisableIRQ+0x40>)
 800058c:	2201      	movs	r2, #1
 800058e:	409a      	lsls	r2, r3
 8000590:	0013      	movs	r3, r2
 8000592:	2280      	movs	r2, #128	@ 0x80
 8000594:	508b      	str	r3, [r1, r2]
  \details Acts as a special kind of Data Memory Barrier.
           It completes when all explicit memory accesses before this instruction complete.
 */
__STATIC_FORCEINLINE void __DSB(void)
{
  __ASM volatile ("dsb 0xF":::"memory");
 8000596:	f3bf 8f4f 	dsb	sy
}
 800059a:	46c0      	nop			@ (mov r8, r8)
  __ASM volatile ("isb 0xF":::"memory");
 800059c:	f3bf 8f6f 	isb	sy
}
 80005a0:	46c0      	nop			@ (mov r8, r8)
    __DSB();
    __ISB();
  }
}
 80005a2:	46c0      	nop			@ (mov r8, r8)
 80005a4:	46bd      	mov	sp, r7
 80005a6:	b002      	add	sp, #8
 80005a8:	bd80      	pop	{r7, pc}
 80005aa:	46c0      	nop			@ (mov r8, r8)
 80005ac:	e000e100 	.word	0xe000e100

080005b0 <__NVIC_SetPendingIRQ>:
  \details Sets the pending bit of a device specific interrupt in the NVIC pending register.
  \param [in]      IRQn  Device specific interrupt number.
  \note    IRQn must not be negative.
 */
__STATIC_INLINE void __NVIC_SetPendingIRQ(IRQn_Type IRQn)
{
 80005b0:	b580      	push	{r7, lr}
 80005b2:	b082      	sub	sp, #8
 80005b4:	af00      	add	r7, sp, #0
 80005b6:	0002      	movs	r2, r0
 80005b8:	1dfb      	adds	r3, r7, #7
 80005ba:	701a      	strb	r2, [r3, #0]
  if ((int32_t)(IRQn) >= 0)
 80005bc:	1dfb      	adds	r3, r7, #7
 80005be:	781b      	ldrb	r3, [r3, #0]
 80005c0:	2b7f      	cmp	r3, #127	@ 0x7f
 80005c2:	d80a      	bhi.n	80005da <__NVIC_SetPendingIRQ+0x2a>
  {
    NVIC->ISPR[0U] = (uint32_t)(1UL << (((uint32_t)IRQn) & 0x1FUL));
 80005c4:	1dfb      	adds	r3, r7, #7
 80005c6:	781b      	ldrb	r3, [r3, #0]
 80005c8:	001a      	movs	r2, r3
 80005ca:	231f      	movs	r3, #31
 80005cc:	4013      	ands	r3, r2
 80005ce:	4905      	ldr	r1, [pc, #20]	@ (80005e4 <__NVIC_SetPendingIRQ+0x34>)
 80005d0:	2201      	movs	r2, #1
 80005d2:	409a      	lsls	r2, r3
 80005d4:	2380      	movs	r3, #128	@ 0x80
 80005d6:	005b      	lsls	r3, r3, #1
 80005d8:	50ca      	str	r2, [r1, r3]
  }
}
 80005da:	46c0      	nop			@ (mov r8, r8)
 80005dc:	46bd      	mov	sp, r7
 80005de:	b002      	add	sp, #8
 80005e0:	bd80      	pop	{r7, pc}
 80005e2:	46c0      	nop			@ (mov r8, r8)
 80005e4:	e000e100 	.word	0xe000e100

080005e8 <__NVIC_SetPriority>:
  \param [in]      IRQn  Interrupt number.
  \param [in]  priority  Priority to set.
  \note    The priority cannot be set for every processor exception.
 */
__STATIC_INLINE void __NVIC_SetPriority(IRQn_Type IRQn, uint32_t priority)
{
 80005e8:	b590      	push	{r4, r7, lr}
 80005ea:	b083      	sub	sp, #12
 80005ec:	af00      	add	r7, sp, #0
 80005ee:	0002      	movs	r2, r0
 80005f0:	6039      	str	r1, [r7, #0]
 80005f2:	1dfb      	adds	r3, r7, #7
 80005f4:	701a      	strb	r2, [r3, #0]
  if ((int32_t)(IRQn) >= 0)
 80005f6:	1dfb      	adds	r3, r7, #7
 80005f8:	781b      	ldrb	r3, [r3, #0]
 80005fa:	2b7f      	cmp	r3, #127	@ 0x7f
 80005fc:	d828      	bhi.n	8000650 <__NVIC_SetPriority+0x68>
  {
    NVIC->IP[_IP_IDX(IRQn)]  = ((uint32_t)(NVIC->IP[_IP_IDX(IRQn)]  & ~(0xFFUL << _BIT_SHIFT(IRQn))) |
 80005fe:	4a2f      	ldr	r2, [pc, #188]	@ (80006bc <__NVIC_SetPriority+0xd4>)
 8000600:	1dfb      	adds	r3, r7, #7
 8000602:	781b      	ldrb	r3, [r3, #0]
 8000604:	b25b      	sxtb	r3, r3
 8000606:	089b      	lsrs	r3, r3, #2
 8000608:	33c0      	adds	r3, #192	@ 0xc0
 800060a:	009b      	lsls	r3, r3, #2
 800060c:	589b      	ldr	r3, [r3, r2]
 800060e:	1dfa      	adds	r2, r7, #7
 8000610:	7812      	ldrb	r2, [r2, #0]
 8000612:	0011      	movs	r1, r2
 8000614:	2203      	movs	r2, #3
 8000616:	400a      	ands	r2, r1
 8000618:	00d2      	lsls	r2, r2, #3
 800061a:	21ff      	movs	r1, #255	@ 0xff
 800061c:	4091      	lsls	r1, r2
 800061e:	000a      	movs	r2, r1
 8000620:	43d2      	mvns	r2, r2
 8000622:	401a      	ands	r2, r3
 8000624:	0011      	movs	r1, r2
       (((priority << (8U - __NVIC_PRIO_BITS)) & (uint32_t)0xFFUL) << _BIT_SHIFT(IRQn)));
 8000626:	683b      	ldr	r3, [r7, #0]
 8000628:	019b      	lsls	r3, r3, #6
 800062a:	22ff      	movs	r2, #255	@ 0xff
 800062c:	401a      	ands	r2, r3
 800062e:	1dfb      	adds	r3, r7, #7
 8000630:	781b      	ldrb	r3, [r3, #0]
 8000632:	0018      	movs	r0, r3
 8000634:	2303      	movs	r3, #3
 8000636:	4003      	ands	r3, r0
 8000638:	00db      	lsls	r3, r3, #3
 800063a:	409a      	lsls	r2, r3
    NVIC->IP[_IP_IDX(IRQn)]  = ((uint32_t)(NVIC->IP[_IP_IDX(IRQn)]  & ~(0xFFUL << _BIT_SHIFT(IRQn))) |
 800063c:	481f      	ldr	r0, [pc, #124]	@ (80006bc <__NVIC_SetPriority+0xd4>)
 800063e:	1dfb      	adds	r3, r7, #7
 8000640:	781b      	ldrb	r3, [r3, #0]
 8000642:	b25b      	sxtb	r3, r3
 8000644:	089b      	lsrs	r3, r3, #2
 8000646:	430a      	orrs	r2, r1
 8000648:	33c0      	adds	r3, #192	@ 0xc0
 800064a:	009b      	lsls	r3, r3, #2
 800064c:	501a      	str	r2, [r3, r0]
  else
  {
    SCB->SHP[_SHP_IDX(IRQn)] = ((uint32_t)(SCB->SHP[_SHP_IDX(IRQn)] & ~(0xFFUL << _BIT_SHIFT(IRQn))) |
       (((priority << (8U - __NVIC_PRIO_BITS)) & (uint32_t)0xFFUL) << _BIT_SHIFT(IRQn)));
  }
}
 800064e:	e031      	b.n	80006b4 <__NVIC_SetPriority+0xcc>
    SCB->SHP[_SHP_IDX(IRQn)] = ((uint32_t)(SCB->SHP[_SHP_IDX(IRQn)] & ~(0xFFUL << _BIT_SHIFT(IRQn))) |
 8000650:	4a1b      	ldr	r2, [pc, #108]	@ (80006c0 <__NVIC_SetPriority+0xd8>)
 8000652:	1dfb      	adds	r3, r7, #7
 8000654:	781b      	ldrb	r3, [r3, #0]
 8000656:	0019      	movs	r1, r3
 8000658:	230f      	movs	r3, #15
 800065a:	400b      	ands	r3, r1
 800065c:	3b08      	subs	r3, #8
 800065e:	089b      	lsrs	r3, r3, #2
 8000660:	3306      	adds	r3, #6
 8000662:	009b      	lsls	r3, r3, #2
 8000664:	18d3      	adds	r3, r2, r3
 8000666:	3304      	adds	r3, #4
 8000668:	681b      	ldr	r3, [r3, #0]
 800066a:	1dfa      	adds	r2, r7, #7
 800066c:	7812      	ldrb	r2, [r2, #0]
 800066e:	0011      	movs	r1, r2
 8000670:	2203      	movs	r2, #3
 8000672:	400a      	ands	r2, r1
 8000674:	00d2      	lsls	r2, r2, #3
 8000676:	21ff      	movs	r1, #255	@ 0xff
 8000678:	4091      	lsls	r1, r2
 800067a:	000a      	movs	r2, r1
 800067c:	43d2      	mvns	r2, r2
 800067e:	401a      	ands	r2, r3
 8000680:	0011      	movs	r1, r2
       (((priority << (8U - __NVIC_PRIO_BITS)) & (uint32_t)0xFFUL) << _BIT_SHIFT(IRQn)));
 8000682:	683b      	ldr	r3, [r7, #0]
 8000684:	019b      	lsls	r3, r3, #6
 8000686:	22ff      	movs	r2, #255	@ 0xff
 8000688:	401a      	ands	r2, r3
 800068a:	1dfb      	adds	r3, r7, #7
 800068c:	781b      	ldrb	r3, [r3, #0]
 800068e:	0018      	movs	r0, r3
 8000690:	2303      	movs	r3, #3
 8000692:	4003      	ands	r3, r0
 8000694:	00db      	lsls	r3, r3, #3
 8000696:	409a      	lsls	r2, r3
    SCB->SHP[_SHP_IDX(IRQn)] = ((uint32_t)(SCB->SHP[_SHP_IDX(IRQn)] & ~(0xFFUL << _BIT_SHIFT(IRQn))) |
 8000698:	4809      	ldr	r0, [pc, #36]	@ (80006c0 <__NVIC_SetPriority+0xd8>)
 800069a:	1dfb      	adds	r3, r7, #7
 800069c:	781b      	ldrb	r3, [r3, #0]
 800069e:	001c      	movs	r4, r3
 80006a0:	230f      	movs	r3, #15
 80006a2:	4023      	ands	r3, r4
 80006a4:	3b08      	subs	r3, #8
 80006a6:	089b      	lsrs	r3, r3, #2
 80006a8:	430a      	orrs	r2, r1
 80006aa:	3306      	adds	r3, #6
 80006ac:	009b      	lsls	r3, r3, #2
 80006ae:	18c3      	adds	r3, r0, r3
 80006b0:	3304      	adds	r3, #4
 80006b2:	601a      	str	r2, [r3, #0]
}
 80006b4:	46c0      	nop			@ (mov r8, r8)
 80006b6:	46bd      	mov	sp, r7
 80006b8:	b003      	add	sp, #12
 80006ba:	bd90      	pop	{r4, r7, pc}
 80006bc:	e000e100 	.word	0xe000e100
 80006c0:	e000ed00 	.word	0xe000ed00

080006c4 <HIDupdateKB>:
{
	return 0;	// redefine to get button state
}

static bool HIDupdateKB(const struct usbdevice_ *usbd)
{
 80006c4:	b590      	push	{r4, r7, lr}
 80006c6:	b085      	sub	sp, #20
 80006c8:	af00      	add	r7, sp, #0
 80006ca:	6078      	str	r0, [r7, #4]
#ifdef HID_PWR
	bool change = (bool)hid_data.InReport[0] ^ BtnGet();
	if (change)
		hid_data.InReport[0] ^= 1;
#else
	bool change = (bool)hid_data.InReport[2] ^ BtnGet();
 80006cc:	4b10      	ldr	r3, [pc, #64]	@ (8000710 <HIDupdateKB+0x4c>)
 80006ce:	7a1b      	ldrb	r3, [r3, #8]
 80006d0:	1e5a      	subs	r2, r3, #1
 80006d2:	4193      	sbcs	r3, r2
 80006d4:	b2db      	uxtb	r3, r3
 80006d6:	001c      	movs	r4, r3
 80006d8:	f7ff ff0a 	bl	80004f0 <BtnGet>
 80006dc:	0003      	movs	r3, r0
 80006de:	0022      	movs	r2, r4
 80006e0:	405a      	eors	r2, r3
 80006e2:	200f      	movs	r0, #15
 80006e4:	183b      	adds	r3, r7, r0
 80006e6:	1e51      	subs	r1, r2, #1
 80006e8:	418a      	sbcs	r2, r1
 80006ea:	701a      	strb	r2, [r3, #0]
	if (change)
 80006ec:	183b      	adds	r3, r7, r0
 80006ee:	781b      	ldrb	r3, [r3, #0]
 80006f0:	2b00      	cmp	r3, #0
 80006f2:	d006      	beq.n	8000702 <HIDupdateKB+0x3e>
		hid_data.InReport[2] ^= HIDKB_KPADSTAR;
 80006f4:	4b06      	ldr	r3, [pc, #24]	@ (8000710 <HIDupdateKB+0x4c>)
 80006f6:	7a1b      	ldrb	r3, [r3, #8]
 80006f8:	2255      	movs	r2, #85	@ 0x55
 80006fa:	4053      	eors	r3, r2
 80006fc:	b2da      	uxtb	r2, r3
 80006fe:	4b04      	ldr	r3, [pc, #16]	@ (8000710 <HIDupdateKB+0x4c>)
 8000700:	721a      	strb	r2, [r3, #8]
#endif
	return change;
 8000702:	230f      	movs	r3, #15
 8000704:	18fb      	adds	r3, r7, r3
 8000706:	781b      	ldrb	r3, [r3, #0]
}
 8000708:	0018      	movs	r0, r3
 800070a:	46bd      	mov	sp, r7
 800070c:	b005      	add	sp, #20
 800070e:	bd90      	pop	{r4, r7, pc}
 8000710:	200001a4 	.word	0x200001a4

08000714 <HIDsetLEDs>:
{
	// redefine to control board's LED
}

static void HIDsetLEDs(const struct usbdevice_ *usbd)
{
 8000714:	b580      	push	{r7, lr}
 8000716:	b082      	sub	sp, #8
 8000718:	af00      	add	r7, sp, #0
 800071a:	6078      	str	r0, [r7, #4]
	// set onboard LED to ScrollLock status
	LED_Set(hid_data.OutReport[0] & HIDKB_MSK_SCROLLLOCK);
 800071c:	4b07      	ldr	r3, [pc, #28]	@ (800073c <HIDsetLEDs+0x28>)
 800071e:	7b9b      	ldrb	r3, [r3, #14]
 8000720:	001a      	movs	r2, r3
 8000722:	2304      	movs	r3, #4
 8000724:	4013      	ands	r3, r2
 8000726:	1e5a      	subs	r2, r3, #1
 8000728:	4193      	sbcs	r3, r2
 800072a:	b2db      	uxtb	r3, r3
 800072c:	0018      	movs	r0, r3
 800072e:	f7ff fed0 	bl	80004d2 <LED_Set>
}
 8000732:	46c0      	nop			@ (mov r8, r8)
 8000734:	46bd      	mov	sp, r7
 8000736:	b002      	add	sp, #8
 8000738:	bd80      	pop	{r7, pc}
 800073a:	46c0      	nop			@ (mov r8, r8)
 800073c:	200001a4 	.word	0x200001a4

08000740 <vcom_write>:
#endif	// USBD_CDC_CHANNELS > 1
};

//
void vcom_write(uint8_t ch, const char *buf, uint16_t size)
{
 8000740:	b590      	push	{r4, r7, lr}
 8000742:	b087      	sub	sp, #28
 8000744:	af00      	add	r7, sp, #0
 8000746:	6039      	str	r1, [r7, #0]
 8000748:	0011      	movs	r1, r2
 800074a:	1dfb      	adds	r3, r7, #7
 800074c:	1c02      	adds	r2, r0, #0
 800074e:	701a      	strb	r2, [r3, #0]
 8000750:	1d3b      	adds	r3, r7, #4
 8000752:	1c0a      	adds	r2, r1, #0
 8000754:	801a      	strh	r2, [r3, #0]
	if (ch < USBD_CDC_CHANNELS)
 8000756:	1dfb      	adds	r3, r7, #7
 8000758:	781b      	ldrb	r3, [r3, #0]
 800075a:	2b01      	cmp	r3, #1
 800075c:	d900      	bls.n	8000760 <vcom_write+0x20>
 800075e:	e07e      	b.n	800085e <vcom_write+0x11e>
	{
		struct cdc_data_ *cdp = &cdc_data[ch];
 8000760:	1dfb      	adds	r3, r7, #7
 8000762:	781b      	ldrb	r3, [r3, #0]
 8000764:	229c      	movs	r2, #156	@ 0x9c
 8000766:	435a      	muls	r2, r3
 8000768:	4b3f      	ldr	r3, [pc, #252]	@ (8000868 <vcom_write+0x128>)
 800076a:	18d3      	adds	r3, r2, r3
 800076c:	617b      	str	r3, [r7, #20]
		struct cdc_session_ *cds = &cdp->session;
 800076e:	697b      	ldr	r3, [r7, #20]
 8000770:	3390      	adds	r3, #144	@ 0x90
 8000772:	613b      	str	r3, [r7, #16]

		while (cds->connected && size)
 8000774:	e06a      	b.n	800084c <vcom_write+0x10c>
		{
			while (cds->connected && cds->TxLength == CDC_DATA_EP_SIZE) ;	// buffer full -> wait
 8000776:	46c0      	nop			@ (mov r8, r8)
 8000778:	693b      	ldr	r3, [r7, #16]
 800077a:	781b      	ldrb	r3, [r3, #0]
 800077c:	b2db      	uxtb	r3, r3
 800077e:	2b00      	cmp	r3, #0
 8000780:	d004      	beq.n	800078c <vcom_write+0x4c>
 8000782:	693b      	ldr	r3, [r7, #16]
 8000784:	7a1b      	ldrb	r3, [r3, #8]
 8000786:	b2db      	uxtb	r3, r3
 8000788:	2b40      	cmp	r3, #64	@ 0x40
 800078a:	d0f5      	beq.n	8000778 <vcom_write+0x38>

			if (cds->connected)
 800078c:	693b      	ldr	r3, [r7, #16]
 800078e:	781b      	ldrb	r3, [r3, #0]
 8000790:	b2db      	uxtb	r3, r3
 8000792:	1d3a      	adds	r2, r7, #4
 8000794:	1d39      	adds	r1, r7, #4
 8000796:	8809      	ldrh	r1, [r1, #0]
 8000798:	8011      	strh	r1, [r2, #0]
 800079a:	2b00      	cmp	r3, #0
 800079c:	d056      	beq.n	800084c <vcom_write+0x10c>
  \details Disables IRQ interrupts by setting special-purpose register PRIMASK.
           Can only be executed in Privileged modes.
 */
__STATIC_FORCEINLINE void __disable_irq(void)
{
  __ASM volatile ("cpsid i" : : : "memory");
 800079e:	b672      	cpsid	i
}
 80007a0:	46c0      	nop			@ (mov r8, r8)
			{
				__disable_irq();
				uint16_t bfree = CDC_DATA_EP_SIZE - cds->TxLength;
 80007a2:	693b      	ldr	r3, [r7, #16]
 80007a4:	7a1b      	ldrb	r3, [r3, #8]
 80007a6:	b2db      	uxtb	r3, r3
 80007a8:	0019      	movs	r1, r3
 80007aa:	200e      	movs	r0, #14
 80007ac:	183b      	adds	r3, r7, r0
 80007ae:	2240      	movs	r2, #64	@ 0x40
 80007b0:	1a52      	subs	r2, r2, r1
 80007b2:	801a      	strh	r2, [r3, #0]
				uint16_t chunksize = size < bfree ? size : bfree;
 80007b4:	230c      	movs	r3, #12
 80007b6:	18fa      	adds	r2, r7, r3
 80007b8:	183b      	adds	r3, r7, r0
 80007ba:	1d39      	adds	r1, r7, #4
 80007bc:	880c      	ldrh	r4, [r1, #0]
 80007be:	881b      	ldrh	r3, [r3, #0]
 80007c0:	b298      	uxth	r0, r3
 80007c2:	b2a1      	uxth	r1, r4
 80007c4:	4288      	cmp	r0, r1
 80007c6:	d900      	bls.n	80007ca <vcom_write+0x8a>
 80007c8:	1c23      	adds	r3, r4, #0
 80007ca:	8013      	strh	r3, [r2, #0]
				memcpy(&cdp->TxData[cds->TxLength], buf, chunksize);
 80007cc:	693b      	ldr	r3, [r7, #16]
 80007ce:	7a1b      	ldrb	r3, [r3, #8]
 80007d0:	b2db      	uxtb	r3, r3
 80007d2:	3350      	adds	r3, #80	@ 0x50
 80007d4:	697a      	ldr	r2, [r7, #20]
 80007d6:	18d0      	adds	r0, r2, r3
 80007d8:	240c      	movs	r4, #12
 80007da:	193b      	adds	r3, r7, r4
 80007dc:	881a      	ldrh	r2, [r3, #0]
 80007de:	683b      	ldr	r3, [r7, #0]
 80007e0:	0019      	movs	r1, r3
 80007e2:	f002 f993 	bl	8002b0c <memcpy>
				buf += chunksize;
 80007e6:	0020      	movs	r0, r4
 80007e8:	183b      	adds	r3, r7, r0
 80007ea:	881b      	ldrh	r3, [r3, #0]
 80007ec:	683a      	ldr	r2, [r7, #0]
 80007ee:	18d3      	adds	r3, r2, r3
 80007f0:	603b      	str	r3, [r7, #0]
				size -= chunksize;
 80007f2:	1d3b      	adds	r3, r7, #4
 80007f4:	1d39      	adds	r1, r7, #4
 80007f6:	183a      	adds	r2, r7, r0
 80007f8:	8809      	ldrh	r1, [r1, #0]
 80007fa:	8812      	ldrh	r2, [r2, #0]
 80007fc:	1a8a      	subs	r2, r1, r2
 80007fe:	801a      	strh	r2, [r3, #0]
				cds->TxLength += chunksize;
 8000800:	693b      	ldr	r3, [r7, #16]
 8000802:	7a1b      	ldrb	r3, [r3, #8]
 8000804:	b2da      	uxtb	r2, r3
 8000806:	183b      	adds	r3, r7, r0
 8000808:	881b      	ldrh	r3, [r3, #0]
 800080a:	b2db      	uxtb	r3, r3
 800080c:	18d3      	adds	r3, r2, r3
 800080e:	b2da      	uxtb	r2, r3
 8000810:	693b      	ldr	r3, [r7, #16]
 8000812:	721a      	strb	r2, [r3, #8]
				if (cds->TxLength == CDC_DATA_EP_SIZE)
 8000814:	693b      	ldr	r3, [r7, #16]
 8000816:	7a1b      	ldrb	r3, [r3, #8]
 8000818:	b2db      	uxtb	r3, r3
 800081a:	2b40      	cmp	r3, #64	@ 0x40
 800081c:	d111      	bne.n	8000842 <vcom_write+0x102>
				{
					cds->TxTout = 0;
 800081e:	693b      	ldr	r3, [r7, #16]
 8000820:	2200      	movs	r2, #0
 8000822:	725a      	strb	r2, [r3, #9]
					NVIC_SetPendingIRQ(vcomcfg[ch].tx_irqn);
 8000824:	1dfb      	adds	r3, r7, #7
 8000826:	781a      	ldrb	r2, [r3, #0]
 8000828:	4910      	ldr	r1, [pc, #64]	@ (800086c <vcom_write+0x12c>)
 800082a:	0013      	movs	r3, r2
 800082c:	005b      	lsls	r3, r3, #1
 800082e:	189b      	adds	r3, r3, r2
 8000830:	009b      	lsls	r3, r3, #2
 8000832:	18cb      	adds	r3, r1, r3
 8000834:	3301      	adds	r3, #1
 8000836:	781b      	ldrb	r3, [r3, #0]
 8000838:	b25b      	sxtb	r3, r3
 800083a:	0018      	movs	r0, r3
 800083c:	f7ff feb8 	bl	80005b0 <__NVIC_SetPendingIRQ>
 8000840:	e002      	b.n	8000848 <vcom_write+0x108>
				}
				else
					cds->TxTout = TX_TOUT;
 8000842:	693b      	ldr	r3, [r7, #16]
 8000844:	2202      	movs	r2, #2
 8000846:	725a      	strb	r2, [r3, #9]
  __ASM volatile ("cpsie i" : : : "memory");
 8000848:	b662      	cpsie	i
}
 800084a:	46c0      	nop			@ (mov r8, r8)
		while (cds->connected && size)
 800084c:	693b      	ldr	r3, [r7, #16]
 800084e:	781b      	ldrb	r3, [r3, #0]
 8000850:	b2db      	uxtb	r3, r3
 8000852:	2b00      	cmp	r3, #0
 8000854:	d003      	beq.n	800085e <vcom_write+0x11e>
 8000856:	1d3b      	adds	r3, r7, #4
 8000858:	881b      	ldrh	r3, [r3, #0]
 800085a:	2b00      	cmp	r3, #0
 800085c:	d18b      	bne.n	8000776 <vcom_write+0x36>
				__enable_irq();
			}
		}
	}
}
 800085e:	46c0      	nop			@ (mov r8, r8)
 8000860:	46bd      	mov	sp, r7
 8000862:	b007      	add	sp, #28
 8000864:	bd90      	pop	{r4, r7, pc}
 8000866:	46c0      	nop			@ (mov r8, r8)
 8000868:	20000004 	.word	0x20000004
 800086c:	08002c04 	.word	0x08002c04

08000870 <vcom_putchar>:

// put character into sendbuf, generate send packet request event
void vcom_putchar(uint8_t ch, char c)
{
 8000870:	b580      	push	{r7, lr}
 8000872:	b082      	sub	sp, #8
 8000874:	af00      	add	r7, sp, #0
 8000876:	0002      	movs	r2, r0
 8000878:	1dfb      	adds	r3, r7, #7
 800087a:	701a      	strb	r2, [r3, #0]
 800087c:	1dbb      	adds	r3, r7, #6
 800087e:	1c0a      	adds	r2, r1, #0
 8000880:	701a      	strb	r2, [r3, #0]
	vcom_write(ch, &c, 1);
 8000882:	1db9      	adds	r1, r7, #6
 8000884:	1dfb      	adds	r3, r7, #7
 8000886:	781b      	ldrb	r3, [r3, #0]
 8000888:	2201      	movs	r2, #1
 800088a:	0018      	movs	r0, r3
 800088c:	f7ff ff58 	bl	8000740 <vcom_write>
}
 8000890:	46c0      	nop			@ (mov r8, r8)
 8000892:	46bd      	mov	sp, r7
 8000894:	b002      	add	sp, #8
 8000896:	bd80      	pop	{r7, pc}

08000898 <vcom_putstring>:

void vcom_putstring(uint8_t ch, const char *s)
{
 8000898:	b580      	push	{r7, lr}
 800089a:	b082      	sub	sp, #8
 800089c:	af00      	add	r7, sp, #0
 800089e:	0002      	movs	r2, r0
 80008a0:	6039      	str	r1, [r7, #0]
 80008a2:	1dfb      	adds	r3, r7, #7
 80008a4:	701a      	strb	r2, [r3, #0]
	if (s)
 80008a6:	683b      	ldr	r3, [r7, #0]
 80008a8:	2b00      	cmp	r3, #0
 80008aa:	d00b      	beq.n	80008c4 <vcom_putstring+0x2c>
		vcom_write(ch, s, strlen(s));
 80008ac:	683b      	ldr	r3, [r7, #0]
 80008ae:	0018      	movs	r0, r3
 80008b0:	f7ff fc2a 	bl	8000108 <strlen>
 80008b4:	0003      	movs	r3, r0
 80008b6:	b29a      	uxth	r2, r3
 80008b8:	6839      	ldr	r1, [r7, #0]
 80008ba:	1dfb      	adds	r3, r7, #7
 80008bc:	781b      	ldrb	r3, [r3, #0]
 80008be:	0018      	movs	r0, r3
 80008c0:	f7ff ff3e 	bl	8000740 <vcom_write>
}
 80008c4:	46c0      	nop			@ (mov r8, r8)
 80008c6:	46bd      	mov	sp, r7
 80008c8:	b002      	add	sp, #8
 80008ca:	bd80      	pop	{r7, pc}

080008cc <send_serialstate_notif>:
// forward declaration
const struct usbdevice_ usbdev;

// inline only to avoid not used warning
static inline void send_serialstate_notif(uint8_t ch)
{
 80008cc:	b580      	push	{r7, lr}
 80008ce:	b084      	sub	sp, #16
 80008d0:	af02      	add	r7, sp, #8
 80008d2:	0002      	movs	r2, r0
 80008d4:	1dfb      	adds	r3, r7, #7
 80008d6:	701a      	strb	r2, [r3, #0]
	ssnotif.wIndex = ConfigDesc.cdc[ch].cdcdesc.cdccomifdesc.bInterfaceNumber;	// interface
 80008d8:	1dfb      	adds	r3, r7, #7
 80008da:	781a      	ldrb	r2, [r3, #0]
 80008dc:	492b      	ldr	r1, [pc, #172]	@ (800098c <send_serialstate_notif+0xc0>)
 80008de:	0013      	movs	r3, r2
 80008e0:	015b      	lsls	r3, r3, #5
 80008e2:	189b      	adds	r3, r3, r2
 80008e4:	005b      	lsls	r3, r3, #1
 80008e6:	18cb      	adds	r3, r1, r3
 80008e8:	3313      	adds	r3, #19
 80008ea:	781b      	ldrb	r3, [r3, #0]
 80008ec:	001a      	movs	r2, r3
 80008ee:	4b28      	ldr	r3, [pc, #160]	@ (8000990 <send_serialstate_notif+0xc4>)
 80008f0:	809a      	strh	r2, [r3, #4]
	ssnotif.wSerialState = cdc_data[ch].SerialState;
 80008f2:	1dfb      	adds	r3, r7, #7
 80008f4:	781b      	ldrb	r3, [r3, #0]
 80008f6:	4a27      	ldr	r2, [pc, #156]	@ (8000994 <send_serialstate_notif+0xc8>)
 80008f8:	219c      	movs	r1, #156	@ 0x9c
 80008fa:	434b      	muls	r3, r1
 80008fc:	18d3      	adds	r3, r2, r3
 80008fe:	330a      	adds	r3, #10
 8000900:	881a      	ldrh	r2, [r3, #0]
 8000902:	4b23      	ldr	r3, [pc, #140]	@ (8000990 <send_serialstate_notif+0xc4>)
 8000904:	811a      	strh	r2, [r3, #8]
	if (USBdev_SendData(&usbdev, ConfigDesc.cdc[ch].cdcdesc.cdcnotif.bEndpointAddress,
 8000906:	1dfb      	adds	r3, r7, #7
 8000908:	781a      	ldrb	r2, [r3, #0]
 800090a:	4920      	ldr	r1, [pc, #128]	@ (800098c <send_serialstate_notif+0xc0>)
 800090c:	202f      	movs	r0, #47	@ 0x2f
 800090e:	0013      	movs	r3, r2
 8000910:	015b      	lsls	r3, r3, #5
 8000912:	189b      	adds	r3, r3, r2
 8000914:	005b      	lsls	r3, r3, #1
 8000916:	18cb      	adds	r3, r1, r3
 8000918:	181b      	adds	r3, r3, r0
 800091a:	7819      	ldrb	r1, [r3, #0]
 800091c:	4a1c      	ldr	r2, [pc, #112]	@ (8000990 <send_serialstate_notif+0xc4>)
 800091e:	481e      	ldr	r0, [pc, #120]	@ (8000998 <send_serialstate_notif+0xcc>)
 8000920:	2300      	movs	r3, #0
 8000922:	9300      	str	r3, [sp, #0]
 8000924:	230a      	movs	r3, #10
 8000926:	f000 febd 	bl	80016a4 <USBdev_SendData>
 800092a:	0003      	movs	r3, r0
 800092c:	001a      	movs	r2, r3
		(const uint8_t *)&ssnotif, sizeof(ssnotif), 0) == 0)
 800092e:	2301      	movs	r3, #1
 8000930:	4053      	eors	r3, r2
 8000932:	b2db      	uxtb	r3, r3
	if (USBdev_SendData(&usbdev, ConfigDesc.cdc[ch].cdcdesc.cdcnotif.bEndpointAddress,
 8000934:	2b00      	cmp	r3, #0
 8000936:	d025      	beq.n	8000984 <send_serialstate_notif+0xb8>
	{
		cdc_data[ch].SerialStateSent = ssnotif.wSerialState & (CDC_SERIAL_STATE_TX_CARRIER | CDC_SERIAL_STATE_RX_CARRIER);	// clear all transient flags
 8000938:	4b15      	ldr	r3, [pc, #84]	@ (8000990 <send_serialstate_notif+0xc4>)
 800093a:	891a      	ldrh	r2, [r3, #8]
 800093c:	1dfb      	adds	r3, r7, #7
 800093e:	781b      	ldrb	r3, [r3, #0]
 8000940:	2103      	movs	r1, #3
 8000942:	400a      	ands	r2, r1
 8000944:	b290      	uxth	r0, r2
 8000946:	4a13      	ldr	r2, [pc, #76]	@ (8000994 <send_serialstate_notif+0xc8>)
 8000948:	219c      	movs	r1, #156	@ 0x9c
 800094a:	434b      	muls	r3, r1
 800094c:	18d3      	adds	r3, r2, r3
 800094e:	330c      	adds	r3, #12
 8000950:	1c02      	adds	r2, r0, #0
 8000952:	801a      	strh	r2, [r3, #0]
		cdc_data[ch].SerialState ^= ssnotif.wSerialState & ~(CDC_SERIAL_STATE_TX_CARRIER | CDC_SERIAL_STATE_RX_CARRIER);	// clear transient flags sent
 8000954:	1dfb      	adds	r3, r7, #7
 8000956:	781b      	ldrb	r3, [r3, #0]
 8000958:	4a0e      	ldr	r2, [pc, #56]	@ (8000994 <send_serialstate_notif+0xc8>)
 800095a:	219c      	movs	r1, #156	@ 0x9c
 800095c:	434b      	muls	r3, r1
 800095e:	18d3      	adds	r3, r2, r3
 8000960:	330a      	adds	r3, #10
 8000962:	8819      	ldrh	r1, [r3, #0]
 8000964:	4b0a      	ldr	r3, [pc, #40]	@ (8000990 <send_serialstate_notif+0xc4>)
 8000966:	891b      	ldrh	r3, [r3, #8]
 8000968:	2203      	movs	r2, #3
 800096a:	4393      	bics	r3, r2
 800096c:	b29a      	uxth	r2, r3
 800096e:	1dfb      	adds	r3, r7, #7
 8000970:	781b      	ldrb	r3, [r3, #0]
 8000972:	404a      	eors	r2, r1
 8000974:	b290      	uxth	r0, r2
 8000976:	4a07      	ldr	r2, [pc, #28]	@ (8000994 <send_serialstate_notif+0xc8>)
 8000978:	219c      	movs	r1, #156	@ 0x9c
 800097a:	434b      	muls	r3, r1
 800097c:	18d3      	adds	r3, r2, r3
 800097e:	330a      	adds	r3, #10
 8000980:	1c02      	adds	r2, r0, #0
 8000982:	801a      	strh	r2, [r3, #0]
	}
}
 8000984:	46c0      	nop			@ (mov r8, r8)
 8000986:	46bd      	mov	sp, r7
 8000988:	b002      	add	sp, #8
 800098a:	bd80      	pop	{r7, pc}
 800098c:	08002b5c 	.word	0x08002b5c
 8000990:	2000016c 	.word	0x2000016c
 8000994:	20000004 	.word	0x20000004
 8000998:	08002c1c 	.word	0x08002c1c

0800099c <vcom_process_input>:

//========================================================================
// overwrite for any real-world use - this is just echo for demo application
// return 1 if prompt requested
__attribute__ ((weak)) uint8_t vcom_process_input(uint8_t ch, uint8_t c)
{
 800099c:	b580      	push	{r7, lr}
 800099e:	b082      	sub	sp, #8
 80009a0:	af00      	add	r7, sp, #0
 80009a2:	0002      	movs	r2, r0
 80009a4:	1dfb      	adds	r3, r7, #7
 80009a6:	701a      	strb	r2, [r3, #0]
 80009a8:	1dbb      	adds	r3, r7, #6
 80009aa:	1c0a      	adds	r2, r1, #0
 80009ac:	701a      	strb	r2, [r3, #0]
#if USBD_CDC_CHANNELS
	vcom_putchar(ch, c);	// echo to the same channel
 80009ae:	1dbb      	adds	r3, r7, #6
 80009b0:	781a      	ldrb	r2, [r3, #0]
 80009b2:	1dfb      	adds	r3, r7, #7
 80009b4:	781b      	ldrb	r3, [r3, #0]
 80009b6:	0011      	movs	r1, r2
 80009b8:	0018      	movs	r0, r3
 80009ba:	f7ff ff59 	bl	8000870 <vcom_putchar>
#endif
	return 0;
 80009be:	2300      	movs	r3, #0
}
 80009c0:	0018      	movs	r0, r3
 80009c2:	46bd      	mov	sp, r7
 80009c4:	b002      	add	sp, #8
 80009c6:	bd80      	pop	{r7, pc}

080009c8 <VCP_ConnStatus>:

__attribute__ ((weak)) void VCP_ConnStatus(uint8_t ch, bool on)
{
 80009c8:	b580      	push	{r7, lr}
 80009ca:	b082      	sub	sp, #8
 80009cc:	af00      	add	r7, sp, #0
 80009ce:	0002      	movs	r2, r0
 80009d0:	1dfb      	adds	r3, r7, #7
 80009d2:	701a      	strb	r2, [r3, #0]
 80009d4:	1dbb      	adds	r3, r7, #6
 80009d6:	1c0a      	adds	r2, r1, #0
 80009d8:	701a      	strb	r2, [r3, #0]
	// define to control board's LED for VCP connection status signaling
}
 80009da:	46c0      	nop			@ (mov r8, r8)
 80009dc:	46bd      	mov	sp, r7
 80009de:	b002      	add	sp, #8
 80009e0:	bd80      	pop	{r7, pc}
	...

080009e4 <allow_rx>:

#endif	// USBD_CDC_CHANNELS

// enable data reception on a specified endpoint - called after received data is processed
static void allow_rx(uint8_t epn)
{
 80009e4:	b580      	push	{r7, lr}
 80009e6:	b082      	sub	sp, #8
 80009e8:	af00      	add	r7, sp, #0
 80009ea:	0002      	movs	r2, r0
 80009ec:	1dfb      	adds	r3, r7, #7
 80009ee:	701a      	strb	r2, [r3, #0]
  __ASM volatile ("cpsid i" : : : "memory");
 80009f0:	b672      	cpsid	i
}
 80009f2:	46c0      	nop			@ (mov r8, r8)
	__disable_irq();
	usbdev.hwif->EnableRx(&usbdev, epn);
 80009f4:	4b06      	ldr	r3, [pc, #24]	@ (8000a10 <allow_rx+0x2c>)
 80009f6:	6a9b      	ldr	r3, [r3, #40]	@ 0x28
 80009f8:	1dfa      	adds	r2, r7, #7
 80009fa:	7811      	ldrb	r1, [r2, #0]
 80009fc:	4a05      	ldr	r2, [pc, #20]	@ (8000a14 <allow_rx+0x30>)
 80009fe:	0010      	movs	r0, r2
 8000a00:	4798      	blx	r3
  __ASM volatile ("cpsie i" : : : "memory");
 8000a02:	b662      	cpsie	i
}
 8000a04:	46c0      	nop			@ (mov r8, r8)
	__enable_irq();
}
 8000a06:	46c0      	nop			@ (mov r8, r8)
 8000a08:	46bd      	mov	sp, r7
 8000a0a:	b002      	add	sp, #8
 8000a0c:	bd80      	pop	{r7, pc}
 8000a0e:	46c0      	nop			@ (mov r8, r8)
 8000a10:	08002e0c 	.word	0x08002e0c
 8000a14:	08002c1c 	.word	0x08002c1c

08000a18 <usbdev_session_init>:
#endif

//========================================================================
// called on reset, suspend, resume
static void usbdev_session_init(void)
{
 8000a18:	b590      	push	{r4, r7, lr}
 8000a1a:	b087      	sub	sp, #28
 8000a1c:	af00      	add	r7, sp, #0
#if USBD_CDC_CHANNELS
	for (uint8_t ch = 0; ch < USBD_CDC_CHANNELS; ch++)
 8000a1e:	2317      	movs	r3, #23
 8000a20:	18fb      	adds	r3, r7, r3
 8000a22:	2200      	movs	r2, #0
 8000a24:	701a      	strb	r2, [r3, #0]
 8000a26:	e01a      	b.n	8000a5e <usbdev_session_init+0x46>
	{
		struct cdc_data_ *cdcp = &cdc_data[ch];
 8000a28:	2417      	movs	r4, #23
 8000a2a:	193b      	adds	r3, r7, r4
 8000a2c:	781b      	ldrb	r3, [r3, #0]
 8000a2e:	229c      	movs	r2, #156	@ 0x9c
 8000a30:	435a      	muls	r2, r3
 8000a32:	4b10      	ldr	r3, [pc, #64]	@ (8000a74 <usbdev_session_init+0x5c>)
 8000a34:	18d3      	adds	r3, r2, r3
 8000a36:	613b      	str	r3, [r7, #16]
		cdcp->session = (struct cdc_session_) {0};
 8000a38:	693b      	ldr	r3, [r7, #16]
 8000a3a:	2290      	movs	r2, #144	@ 0x90
 8000a3c:	189b      	adds	r3, r3, r2
 8000a3e:	220a      	movs	r2, #10
 8000a40:	2100      	movs	r1, #0
 8000a42:	0018      	movs	r0, r3
 8000a44:	f002 f836 	bl	8002ab4 <memset>
		VCP_ConnStatus(ch, 0);
 8000a48:	193b      	adds	r3, r7, r4
 8000a4a:	781b      	ldrb	r3, [r3, #0]
 8000a4c:	2100      	movs	r1, #0
 8000a4e:	0018      	movs	r0, r3
 8000a50:	f7ff ffba 	bl	80009c8 <VCP_ConnStatus>
	for (uint8_t ch = 0; ch < USBD_CDC_CHANNELS; ch++)
 8000a54:	193b      	adds	r3, r7, r4
 8000a56:	781a      	ldrb	r2, [r3, #0]
 8000a58:	193b      	adds	r3, r7, r4
 8000a5a:	3201      	adds	r2, #1
 8000a5c:	701a      	strb	r2, [r3, #0]
 8000a5e:	2317      	movs	r3, #23
 8000a60:	18fb      	adds	r3, r7, r3
 8000a62:	781b      	ldrb	r3, [r3, #0]
 8000a64:	2b01      	cmp	r3, #1
 8000a66:	d9df      	bls.n	8000a28 <usbdev_session_init+0x10>
	}
#endif
}
 8000a68:	46c0      	nop			@ (mov r8, r8)
 8000a6a:	46c0      	nop			@ (mov r8, r8)
 8000a6c:	46bd      	mov	sp, r7
 8000a6e:	b007      	add	sp, #28
 8000a70:	bd90      	pop	{r4, r7, pc}
 8000a72:	46c0      	nop			@ (mov r8, r8)
 8000a74:	20000004 	.word	0x20000004

08000a78 <usbdev_reset>:

static void usbdev_reset(void)
{
 8000a78:	b580      	push	{r7, lr}
 8000a7a:	b082      	sub	sp, #8
 8000a7c:	af00      	add	r7, sp, #0
	usbdev_session_init();
 8000a7e:	f7ff ffcb 	bl	8000a18 <usbdev_session_init>
#if USBD_CDC_CHANNELS
	for (uint8_t ch = 0; ch < USBD_CDC_CHANNELS; ch++)
 8000a82:	1dfb      	adds	r3, r7, #7
 8000a84:	2200      	movs	r2, #0
 8000a86:	701a      	strb	r2, [r3, #0]
 8000a88:	e014      	b.n	8000ab4 <usbdev_reset+0x3c>
	{
		struct cdc_data_ *cdcp = &cdc_data[ch];
 8000a8a:	1dfb      	adds	r3, r7, #7
 8000a8c:	781b      	ldrb	r3, [r3, #0]
 8000a8e:	229c      	movs	r2, #156	@ 0x9c
 8000a90:	435a      	muls	r2, r3
 8000a92:	4b0d      	ldr	r3, [pc, #52]	@ (8000ac8 <usbdev_reset+0x50>)
 8000a94:	18d3      	adds	r3, r2, r3
 8000a96:	603b      	str	r3, [r7, #0]
		cdcp->ControlLineState = 0;
 8000a98:	683b      	ldr	r3, [r7, #0]
 8000a9a:	2200      	movs	r2, #0
 8000a9c:	811a      	strh	r2, [r3, #8]
		cdcp->ControlLineStateChanged = 0;
 8000a9e:	683b      	ldr	r3, [r7, #0]
 8000aa0:	2200      	movs	r2, #0
 8000aa2:	73da      	strb	r2, [r3, #15]
		cdcp->LineCodingChanged = 0;
 8000aa4:	683b      	ldr	r3, [r7, #0]
 8000aa6:	2200      	movs	r2, #0
 8000aa8:	739a      	strb	r2, [r3, #14]
	for (uint8_t ch = 0; ch < USBD_CDC_CHANNELS; ch++)
 8000aaa:	1dfb      	adds	r3, r7, #7
 8000aac:	781a      	ldrb	r2, [r3, #0]
 8000aae:	1dfb      	adds	r3, r7, #7
 8000ab0:	3201      	adds	r2, #1
 8000ab2:	701a      	strb	r2, [r3, #0]
 8000ab4:	1dfb      	adds	r3, r7, #7
 8000ab6:	781b      	ldrb	r3, [r3, #0]
 8000ab8:	2b01      	cmp	r3, #1
 8000aba:	d9e6      	bls.n	8000a8a <usbdev_reset+0x12>
	}
#endif
}
 8000abc:	46c0      	nop			@ (mov r8, r8)
 8000abe:	46c0      	nop			@ (mov r8, r8)
 8000ac0:	46bd      	mov	sp, r7
 8000ac2:	b002      	add	sp, #8
 8000ac4:	bd80      	pop	{r7, pc}
 8000ac6:	46c0      	nop			@ (mov r8, r8)
 8000ac8:	20000004 	.word	0x20000004

08000acc <usbdev_resume>:
 * resume with old linestate, reset, resume, reset, reset
 *  -> no linestate update
 */

static void usbdev_resume(void)
{
 8000acc:	b580      	push	{r7, lr}
 8000ace:	b082      	sub	sp, #8
 8000ad0:	af00      	add	r7, sp, #0
	usbdev_session_init();
 8000ad2:	f7ff ffa1 	bl	8000a18 <usbdev_session_init>
#if USBD_CDC_CHANNELS
	for (uint8_t ch = 0; ch < USBD_CDC_CHANNELS; ch++)
 8000ad6:	1dfb      	adds	r3, r7, #7
 8000ad8:	2200      	movs	r2, #0
 8000ada:	701a      	strb	r2, [r3, #0]
 8000adc:	e016      	b.n	8000b0c <usbdev_resume+0x40>
	{
		struct cdc_data_ *cdcp = &cdc_data[ch];
 8000ade:	1dfb      	adds	r3, r7, #7
 8000ae0:	781b      	ldrb	r3, [r3, #0]
 8000ae2:	229c      	movs	r2, #156	@ 0x9c
 8000ae4:	435a      	muls	r2, r3
 8000ae6:	4b0e      	ldr	r3, [pc, #56]	@ (8000b20 <usbdev_resume+0x54>)
 8000ae8:	18d3      	adds	r3, r2, r3
 8000aea:	603b      	str	r3, [r7, #0]
		if ((cdcp->ControlLineState & (CDC_CTL_DTR | CDC_CTL_RTS)) == (CDC_CTL_DTR | CDC_CTL_RTS))
 8000aec:	683b      	ldr	r3, [r7, #0]
 8000aee:	891b      	ldrh	r3, [r3, #8]
 8000af0:	001a      	movs	r2, r3
 8000af2:	2303      	movs	r3, #3
 8000af4:	4013      	ands	r3, r2
 8000af6:	2b03      	cmp	r3, #3
 8000af8:	d103      	bne.n	8000b02 <usbdev_resume+0x36>
		{
			cdcp->session.connstart_timer = SIGNON_DELAY;	// display prompt after 50 ms
 8000afa:	683b      	ldr	r3, [r7, #0]
 8000afc:	2293      	movs	r2, #147	@ 0x93
 8000afe:	2132      	movs	r1, #50	@ 0x32
 8000b00:	5499      	strb	r1, [r3, r2]
	for (uint8_t ch = 0; ch < USBD_CDC_CHANNELS; ch++)
 8000b02:	1dfb      	adds	r3, r7, #7
 8000b04:	781a      	ldrb	r2, [r3, #0]
 8000b06:	1dfb      	adds	r3, r7, #7
 8000b08:	3201      	adds	r2, #1
 8000b0a:	701a      	strb	r2, [r3, #0]
 8000b0c:	1dfb      	adds	r3, r7, #7
 8000b0e:	781b      	ldrb	r3, [r3, #0]
 8000b10:	2b01      	cmp	r3, #1
 8000b12:	d9e4      	bls.n	8000ade <usbdev_resume+0x12>
		}
	}
#endif
}
 8000b14:	46c0      	nop			@ (mov r8, r8)
 8000b16:	46c0      	nop			@ (mov r8, r8)
 8000b18:	46bd      	mov	sp, r7
 8000b1a:	b002      	add	sp, #8
 8000b1c:	bd80      	pop	{r7, pc}
 8000b1e:	46c0      	nop			@ (mov r8, r8)
 8000b20:	20000004 	.word	0x20000004

08000b24 <usbdev_tick>:
//========================================================================
volatile uint32_t usbdev_msec;

// called from USB interrupt at 1 kHz (SOF)
void usbdev_tick(void)
{
 8000b24:	b590      	push	{r4, r7, lr}
 8000b26:	b087      	sub	sp, #28
 8000b28:	af02      	add	r7, sp, #8
	++usbdev_msec;
 8000b2a:	4b79      	ldr	r3, [pc, #484]	@ (8000d10 <usbdev_tick+0x1ec>)
 8000b2c:	681b      	ldr	r3, [r3, #0]
 8000b2e:	1c5a      	adds	r2, r3, #1
 8000b30:	4b77      	ldr	r3, [pc, #476]	@ (8000d10 <usbdev_tick+0x1ec>)
 8000b32:	601a      	str	r2, [r3, #0]
	{
		cdc_data[0].SerialState = dt >> 10 & 3;
		//send_serialstate_notif(0);
	}
#endif
	for (uint8_t ch = 0; ch < USBD_CDC_CHANNELS; ch++)
 8000b34:	230f      	movs	r3, #15
 8000b36:	18fb      	adds	r3, r7, r3
 8000b38:	2200      	movs	r2, #0
 8000b3a:	701a      	strb	r2, [r3, #0]
 8000b3c:	e08c      	b.n	8000c58 <usbdev_tick+0x134>
	{
		struct cdc_data_ *cdcp = &cdc_data[ch];
 8000b3e:	210f      	movs	r1, #15
 8000b40:	187b      	adds	r3, r7, r1
 8000b42:	781b      	ldrb	r3, [r3, #0]
 8000b44:	229c      	movs	r2, #156	@ 0x9c
 8000b46:	435a      	muls	r2, r3
 8000b48:	4b72      	ldr	r3, [pc, #456]	@ (8000d14 <usbdev_tick+0x1f0>)
 8000b4a:	18d3      	adds	r3, r2, r3
 8000b4c:	60bb      	str	r3, [r7, #8]
		struct cdc_session_ *cds = &cdcp->session;
 8000b4e:	68bb      	ldr	r3, [r7, #8]
 8000b50:	3390      	adds	r3, #144	@ 0x90
 8000b52:	607b      	str	r3, [r7, #4]

		if (cds->connstart_timer && --cds->connstart_timer == 0)
 8000b54:	687b      	ldr	r3, [r7, #4]
 8000b56:	78db      	ldrb	r3, [r3, #3]
 8000b58:	2b00      	cmp	r3, #0
 8000b5a:	d030      	beq.n	8000bbe <usbdev_tick+0x9a>
 8000b5c:	687b      	ldr	r3, [r7, #4]
 8000b5e:	78db      	ldrb	r3, [r3, #3]
 8000b60:	3b01      	subs	r3, #1
 8000b62:	b2da      	uxtb	r2, r3
 8000b64:	687b      	ldr	r3, [r7, #4]
 8000b66:	70da      	strb	r2, [r3, #3]
 8000b68:	687b      	ldr	r3, [r7, #4]
 8000b6a:	78db      	ldrb	r3, [r3, #3]
 8000b6c:	2b00      	cmp	r3, #0
 8000b6e:	d126      	bne.n	8000bbe <usbdev_tick+0x9a>
		{
			cds->connected = 1;
 8000b70:	687b      	ldr	r3, [r7, #4]
 8000b72:	2201      	movs	r2, #1
 8000b74:	701a      	strb	r2, [r3, #0]
			VCP_ConnStatus(ch, 1);
 8000b76:	000c      	movs	r4, r1
 8000b78:	193b      	adds	r3, r7, r4
 8000b7a:	781b      	ldrb	r3, [r3, #0]
 8000b7c:	2101      	movs	r1, #1
 8000b7e:	0018      	movs	r0, r3
 8000b80:	f7ff ff22 	bl	80009c8 <VCP_ConnStatus>
			cds->signon_rq = 1;
 8000b84:	687b      	ldr	r3, [r7, #4]
 8000b86:	2201      	movs	r2, #1
 8000b88:	705a      	strb	r2, [r3, #1]
			NVIC_SetPendingIRQ(vcomcfg[ch].rx_irqn);
 8000b8a:	193b      	adds	r3, r7, r4
 8000b8c:	781a      	ldrb	r2, [r3, #0]
 8000b8e:	4962      	ldr	r1, [pc, #392]	@ (8000d18 <usbdev_tick+0x1f4>)
 8000b90:	0013      	movs	r3, r2
 8000b92:	005b      	lsls	r3, r3, #1
 8000b94:	189b      	adds	r3, r3, r2
 8000b96:	009b      	lsls	r3, r3, #2
 8000b98:	5c5b      	ldrb	r3, [r3, r1]
 8000b9a:	b25b      	sxtb	r3, r3
 8000b9c:	0018      	movs	r0, r3
 8000b9e:	f7ff fd07 	bl	80005b0 <__NVIC_SetPendingIRQ>
			NVIC_EnableIRQ(vcomcfg[ch].tx_irqn);
 8000ba2:	193b      	adds	r3, r7, r4
 8000ba4:	781a      	ldrb	r2, [r3, #0]
 8000ba6:	495c      	ldr	r1, [pc, #368]	@ (8000d18 <usbdev_tick+0x1f4>)
 8000ba8:	0013      	movs	r3, r2
 8000baa:	005b      	lsls	r3, r3, #1
 8000bac:	189b      	adds	r3, r3, r2
 8000bae:	009b      	lsls	r3, r3, #2
 8000bb0:	18cb      	adds	r3, r1, r3
 8000bb2:	3301      	adds	r3, #1
 8000bb4:	781b      	ldrb	r3, [r3, #0]
 8000bb6:	b25b      	sxtb	r3, r3
 8000bb8:	0018      	movs	r0, r3
 8000bba:	f7ff fcbd 	bl	8000538 <__NVIC_EnableIRQ>
		}
		if (cds->autonul_timer && --cds->autonul_timer == 0)
 8000bbe:	687b      	ldr	r3, [r7, #4]
 8000bc0:	795b      	ldrb	r3, [r3, #5]
 8000bc2:	2b00      	cmp	r3, #0
 8000bc4:	d019      	beq.n	8000bfa <usbdev_tick+0xd6>
 8000bc6:	687b      	ldr	r3, [r7, #4]
 8000bc8:	795b      	ldrb	r3, [r3, #5]
 8000bca:	3b01      	subs	r3, #1
 8000bcc:	b2da      	uxtb	r2, r3
 8000bce:	687b      	ldr	r3, [r7, #4]
 8000bd0:	715a      	strb	r2, [r3, #5]
 8000bd2:	687b      	ldr	r3, [r7, #4]
 8000bd4:	795b      	ldrb	r3, [r3, #5]
 8000bd6:	2b00      	cmp	r3, #0
 8000bd8:	d10f      	bne.n	8000bfa <usbdev_tick+0xd6>
		{
			cds->autonul = 1;
 8000bda:	687b      	ldr	r3, [r7, #4]
 8000bdc:	2201      	movs	r2, #1
 8000bde:	711a      	strb	r2, [r3, #4]
			NVIC_SetPendingIRQ(vcomcfg[ch].rx_irqn);
 8000be0:	230f      	movs	r3, #15
 8000be2:	18fb      	adds	r3, r7, r3
 8000be4:	781a      	ldrb	r2, [r3, #0]
 8000be6:	494c      	ldr	r1, [pc, #304]	@ (8000d18 <usbdev_tick+0x1f4>)
 8000be8:	0013      	movs	r3, r2
 8000bea:	005b      	lsls	r3, r3, #1
 8000bec:	189b      	adds	r3, r3, r2
 8000bee:	009b      	lsls	r3, r3, #2
 8000bf0:	5c5b      	ldrb	r3, [r3, r1]
 8000bf2:	b25b      	sxtb	r3, r3
 8000bf4:	0018      	movs	r0, r3
 8000bf6:	f7ff fcdb 	bl	80005b0 <__NVIC_SetPendingIRQ>
		}
		if (cds->TxTout && --cds->TxTout == 0)
 8000bfa:	687b      	ldr	r3, [r7, #4]
 8000bfc:	7a5b      	ldrb	r3, [r3, #9]
 8000bfe:	2b00      	cmp	r3, #0
 8000c00:	d018      	beq.n	8000c34 <usbdev_tick+0x110>
 8000c02:	687b      	ldr	r3, [r7, #4]
 8000c04:	7a5b      	ldrb	r3, [r3, #9]
 8000c06:	3b01      	subs	r3, #1
 8000c08:	b2da      	uxtb	r2, r3
 8000c0a:	687b      	ldr	r3, [r7, #4]
 8000c0c:	725a      	strb	r2, [r3, #9]
 8000c0e:	687b      	ldr	r3, [r7, #4]
 8000c10:	7a5b      	ldrb	r3, [r3, #9]
 8000c12:	2b00      	cmp	r3, #0
 8000c14:	d10e      	bne.n	8000c34 <usbdev_tick+0x110>
		{
			NVIC_SetPendingIRQ(vcomcfg[ch].tx_irqn);
 8000c16:	230f      	movs	r3, #15
 8000c18:	18fb      	adds	r3, r7, r3
 8000c1a:	781a      	ldrb	r2, [r3, #0]
 8000c1c:	493e      	ldr	r1, [pc, #248]	@ (8000d18 <usbdev_tick+0x1f4>)
 8000c1e:	0013      	movs	r3, r2
 8000c20:	005b      	lsls	r3, r3, #1
 8000c22:	189b      	adds	r3, r3, r2
 8000c24:	009b      	lsls	r3, r3, #2
 8000c26:	18cb      	adds	r3, r1, r3
 8000c28:	3301      	adds	r3, #1
 8000c2a:	781b      	ldrb	r3, [r3, #0]
 8000c2c:	b25b      	sxtb	r3, r3
 8000c2e:	0018      	movs	r0, r3
 8000c30:	f7ff fcbe 	bl	80005b0 <__NVIC_SetPendingIRQ>
		}
		if (cdcp->SerialState != cdcp->SerialStateSent)
 8000c34:	68bb      	ldr	r3, [r7, #8]
 8000c36:	895a      	ldrh	r2, [r3, #10]
 8000c38:	68bb      	ldr	r3, [r7, #8]
 8000c3a:	899b      	ldrh	r3, [r3, #12]
 8000c3c:	429a      	cmp	r2, r3
 8000c3e:	d005      	beq.n	8000c4c <usbdev_tick+0x128>
			send_serialstate_notif(ch);
 8000c40:	230f      	movs	r3, #15
 8000c42:	18fb      	adds	r3, r7, r3
 8000c44:	781b      	ldrb	r3, [r3, #0]
 8000c46:	0018      	movs	r0, r3
 8000c48:	f7ff fe40 	bl	80008cc <send_serialstate_notif>
	for (uint8_t ch = 0; ch < USBD_CDC_CHANNELS; ch++)
 8000c4c:	210f      	movs	r1, #15
 8000c4e:	187b      	adds	r3, r7, r1
 8000c50:	781a      	ldrb	r2, [r3, #0]
 8000c52:	187b      	adds	r3, r7, r1
 8000c54:	3201      	adds	r2, #1
 8000c56:	701a      	strb	r2, [r3, #0]
 8000c58:	230f      	movs	r3, #15
 8000c5a:	18fb      	adds	r3, r7, r3
 8000c5c:	781b      	ldrb	r3, [r3, #0]
 8000c5e:	2b01      	cmp	r3, #1
 8000c60:	d800      	bhi.n	8000c64 <usbdev_tick+0x140>
 8000c62:	e76c      	b.n	8000b3e <usbdev_tick+0x1a>
	}
#endif	// USBD_CDC_CHANNELS
#if USBD_HID
	if (hid_data.SampleTimer == 0)
 8000c64:	4b2d      	ldr	r3, [pc, #180]	@ (8000d1c <usbdev_tick+0x1f8>)
 8000c66:	789b      	ldrb	r3, [r3, #2]
 8000c68:	2b00      	cmp	r3, #0
 8000c6a:	d109      	bne.n	8000c80 <usbdev_tick+0x15c>
	{
		// initialize once
		hid_data.SampleTimer = HID_POLLING_INTERVAL;
 8000c6c:	4b2b      	ldr	r3, [pc, #172]	@ (8000d1c <usbdev_tick+0x1f8>)
 8000c6e:	2214      	movs	r2, #20
 8000c70:	709a      	strb	r2, [r3, #2]
		hid_data.Idle = HID_DEFAULT_IDLE;
 8000c72:	4b2a      	ldr	r3, [pc, #168]	@ (8000d1c <usbdev_tick+0x1f8>)
 8000c74:	227d      	movs	r2, #125	@ 0x7d
 8000c76:	70da      	strb	r2, [r3, #3]
		hid_data.ReportTimer = HID_POLLING_INTERVAL;
 8000c78:	4b28      	ldr	r3, [pc, #160]	@ (8000d1c <usbdev_tick+0x1f8>)
 8000c7a:	2214      	movs	r2, #20
 8000c7c:	801a      	strh	r2, [r3, #0]
 8000c7e:	e015      	b.n	8000cac <usbdev_tick+0x188>
	}
	else if (--hid_data.SampleTimer == 0)
 8000c80:	4b26      	ldr	r3, [pc, #152]	@ (8000d1c <usbdev_tick+0x1f8>)
 8000c82:	789b      	ldrb	r3, [r3, #2]
 8000c84:	3b01      	subs	r3, #1
 8000c86:	b2da      	uxtb	r2, r3
 8000c88:	4b24      	ldr	r3, [pc, #144]	@ (8000d1c <usbdev_tick+0x1f8>)
 8000c8a:	709a      	strb	r2, [r3, #2]
 8000c8c:	4b23      	ldr	r3, [pc, #140]	@ (8000d1c <usbdev_tick+0x1f8>)
 8000c8e:	789b      	ldrb	r3, [r3, #2]
 8000c90:	2b00      	cmp	r3, #0
 8000c92:	d10b      	bne.n	8000cac <usbdev_tick+0x188>
	{
		hid_data.SampleTimer = HID_POLLING_INTERVAL;
 8000c94:	4b21      	ldr	r3, [pc, #132]	@ (8000d1c <usbdev_tick+0x1f8>)
 8000c96:	2214      	movs	r2, #20
 8000c98:	709a      	strb	r2, [r3, #2]
		if (HIDupdateKB(&usbdev))
 8000c9a:	4b21      	ldr	r3, [pc, #132]	@ (8000d20 <usbdev_tick+0x1fc>)
 8000c9c:	0018      	movs	r0, r3
 8000c9e:	f7ff fd11 	bl	80006c4 <HIDupdateKB>
 8000ca2:	1e03      	subs	r3, r0, #0
 8000ca4:	d002      	beq.n	8000cac <usbdev_tick+0x188>
			hid_data.InRq = 1;
 8000ca6:	4b1d      	ldr	r3, [pc, #116]	@ (8000d1c <usbdev_tick+0x1f8>)
 8000ca8:	2201      	movs	r2, #1
 8000caa:	715a      	strb	r2, [r3, #5]
	}
	if (((hid_data.ReportTimer && --hid_data.ReportTimer == 0) || hid_data.InRq)
 8000cac:	4b1b      	ldr	r3, [pc, #108]	@ (8000d1c <usbdev_tick+0x1f8>)
 8000cae:	881b      	ldrh	r3, [r3, #0]
 8000cb0:	2b00      	cmp	r3, #0
 8000cb2:	d009      	beq.n	8000cc8 <usbdev_tick+0x1a4>
 8000cb4:	4b19      	ldr	r3, [pc, #100]	@ (8000d1c <usbdev_tick+0x1f8>)
 8000cb6:	881b      	ldrh	r3, [r3, #0]
 8000cb8:	3b01      	subs	r3, #1
 8000cba:	b29a      	uxth	r2, r3
 8000cbc:	4b17      	ldr	r3, [pc, #92]	@ (8000d1c <usbdev_tick+0x1f8>)
 8000cbe:	801a      	strh	r2, [r3, #0]
 8000cc0:	4b16      	ldr	r3, [pc, #88]	@ (8000d1c <usbdev_tick+0x1f8>)
 8000cc2:	881b      	ldrh	r3, [r3, #0]
 8000cc4:	2b00      	cmp	r3, #0
 8000cc6:	d003      	beq.n	8000cd0 <usbdev_tick+0x1ac>
 8000cc8:	4b14      	ldr	r3, [pc, #80]	@ (8000d1c <usbdev_tick+0x1f8>)
 8000cca:	795b      	ldrb	r3, [r3, #5]
 8000ccc:	2b00      	cmp	r3, #0
 8000cce:	d01a      	beq.n	8000d06 <usbdev_tick+0x1e2>
		&& USBdev_SendData(&usbdev, HID_IN_EP, (const uint8_t *)hid_data.InReport, sizeof(hid_data.InReport), 0) == 0)
 8000cd0:	4a14      	ldr	r2, [pc, #80]	@ (8000d24 <usbdev_tick+0x200>)
 8000cd2:	4813      	ldr	r0, [pc, #76]	@ (8000d20 <usbdev_tick+0x1fc>)
 8000cd4:	2300      	movs	r3, #0
 8000cd6:	9300      	str	r3, [sp, #0]
 8000cd8:	2308      	movs	r3, #8
 8000cda:	2185      	movs	r1, #133	@ 0x85
 8000cdc:	f000 fce2 	bl	80016a4 <USBdev_SendData>
 8000ce0:	0003      	movs	r3, r0
 8000ce2:	001a      	movs	r2, r3
 8000ce4:	2301      	movs	r3, #1
 8000ce6:	4053      	eors	r3, r2
 8000ce8:	b2db      	uxtb	r3, r3
 8000cea:	2b00      	cmp	r3, #0
 8000cec:	d00b      	beq.n	8000d06 <usbdev_tick+0x1e2>
	{
		hid_data.ReportTimer = hid_data.Idle * 4 > HID_POLLING_INTERVAL ? hid_data.Idle * 4 : HID_POLLING_INTERVAL;
 8000cee:	4b0b      	ldr	r3, [pc, #44]	@ (8000d1c <usbdev_tick+0x1f8>)
 8000cf0:	78db      	ldrb	r3, [r3, #3]
 8000cf2:	009b      	lsls	r3, r3, #2
 8000cf4:	2b14      	cmp	r3, #20
 8000cf6:	d200      	bcs.n	8000cfa <usbdev_tick+0x1d6>
 8000cf8:	2314      	movs	r3, #20
 8000cfa:	b29a      	uxth	r2, r3
 8000cfc:	4b07      	ldr	r3, [pc, #28]	@ (8000d1c <usbdev_tick+0x1f8>)
 8000cfe:	801a      	strh	r2, [r3, #0]
		hid_data.InRq = 0;
 8000d00:	4b06      	ldr	r3, [pc, #24]	@ (8000d1c <usbdev_tick+0x1f8>)
 8000d02:	2200      	movs	r2, #0
 8000d04:	715a      	strb	r2, [r3, #5]
	}

#endif	// USBD_HID
}
 8000d06:	46c0      	nop			@ (mov r8, r8)
 8000d08:	46bd      	mov	sp, r7
 8000d0a:	b005      	add	sp, #20
 8000d0c:	bd90      	pop	{r4, r7, pc}
 8000d0e:	46c0      	nop			@ (mov r8, r8)
 8000d10:	2000022c 	.word	0x2000022c
 8000d14:	20000004 	.word	0x20000004
 8000d18:	08002c04 	.word	0x08002c04
 8000d1c:	200001a4 	.word	0x200001a4
 8000d20:	08002c1c 	.word	0x08002c1c
 8000d24:	200001aa 	.word	0x200001aa

08000d28 <cdc_LineStateHandler>:

#if USBD_CDC_CHANNELS
void cdc_LineStateHandler(const struct usbdevice_ *usbd, uint8_t ch)
{
 8000d28:	b580      	push	{r7, lr}
 8000d2a:	b082      	sub	sp, #8
 8000d2c:	af00      	add	r7, sp, #0
 8000d2e:	6078      	str	r0, [r7, #4]
 8000d30:	000a      	movs	r2, r1
 8000d32:	1cfb      	adds	r3, r7, #3
 8000d34:	701a      	strb	r2, [r3, #0]
	// called from USB interrupt, overwrites the default handler in usb_class.c
	if ((cdc_data[ch].ControlLineState & (CDC_CTL_DTR | CDC_CTL_RTS)) == (CDC_CTL_DTR | CDC_CTL_RTS))
 8000d36:	1cfb      	adds	r3, r7, #3
 8000d38:	781b      	ldrb	r3, [r3, #0]
 8000d3a:	4a28      	ldr	r2, [pc, #160]	@ (8000ddc <cdc_LineStateHandler+0xb4>)
 8000d3c:	219c      	movs	r1, #156	@ 0x9c
 8000d3e:	434b      	muls	r3, r1
 8000d40:	18d3      	adds	r3, r2, r3
 8000d42:	3308      	adds	r3, #8
 8000d44:	881b      	ldrh	r3, [r3, #0]
 8000d46:	001a      	movs	r2, r3
 8000d48:	2303      	movs	r3, #3
 8000d4a:	4013      	ands	r3, r2
 8000d4c:	2b03      	cmp	r3, #3
 8000d4e:	d11e      	bne.n	8000d8e <cdc_LineStateHandler+0x66>
	{
		// Note: Br@y Terminal sends DTR & RTS only when DTR goes active while RTS _is_ active
		cdc_data[ch].SerialState |= CDC_SERIAL_STATE_TX_CARRIER | CDC_SERIAL_STATE_RX_CARRIER;
 8000d50:	1cfb      	adds	r3, r7, #3
 8000d52:	781b      	ldrb	r3, [r3, #0]
 8000d54:	4a21      	ldr	r2, [pc, #132]	@ (8000ddc <cdc_LineStateHandler+0xb4>)
 8000d56:	219c      	movs	r1, #156	@ 0x9c
 8000d58:	434b      	muls	r3, r1
 8000d5a:	18d3      	adds	r3, r2, r3
 8000d5c:	330a      	adds	r3, #10
 8000d5e:	881a      	ldrh	r2, [r3, #0]
 8000d60:	1cfb      	adds	r3, r7, #3
 8000d62:	781b      	ldrb	r3, [r3, #0]
 8000d64:	2103      	movs	r1, #3
 8000d66:	430a      	orrs	r2, r1
 8000d68:	b290      	uxth	r0, r2
 8000d6a:	4a1c      	ldr	r2, [pc, #112]	@ (8000ddc <cdc_LineStateHandler+0xb4>)
 8000d6c:	219c      	movs	r1, #156	@ 0x9c
 8000d6e:	434b      	muls	r3, r1
 8000d70:	18d3      	adds	r3, r2, r3
 8000d72:	330a      	adds	r3, #10
 8000d74:	1c02      	adds	r2, r0, #0
 8000d76:	801a      	strh	r2, [r3, #0]
		cdc_data[ch].session.connstart_timer = SIGNON_DELAY;	// display prompt after 50 ms
 8000d78:	1cfb      	adds	r3, r7, #3
 8000d7a:	781b      	ldrb	r3, [r3, #0]
 8000d7c:	4a17      	ldr	r2, [pc, #92]	@ (8000ddc <cdc_LineStateHandler+0xb4>)
 8000d7e:	2193      	movs	r1, #147	@ 0x93
 8000d80:	209c      	movs	r0, #156	@ 0x9c
 8000d82:	4343      	muls	r3, r0
 8000d84:	18d3      	adds	r3, r2, r3
 8000d86:	185b      	adds	r3, r3, r1
 8000d88:	2232      	movs	r2, #50	@ 0x32
 8000d8a:	701a      	strb	r2, [r3, #0]
 8000d8c:	e019      	b.n	8000dc2 <cdc_LineStateHandler+0x9a>
	}
	else
	{
		//NVIC_DisableIRQ(VCOM0_tx_IRQn);
		// should reset the state
		cdc_data[ch].session.connstart_timer = 0;	// possible hazard w/USB interrupt
 8000d8e:	1cfb      	adds	r3, r7, #3
 8000d90:	781b      	ldrb	r3, [r3, #0]
 8000d92:	4a12      	ldr	r2, [pc, #72]	@ (8000ddc <cdc_LineStateHandler+0xb4>)
 8000d94:	2193      	movs	r1, #147	@ 0x93
 8000d96:	209c      	movs	r0, #156	@ 0x9c
 8000d98:	4343      	muls	r3, r0
 8000d9a:	18d3      	adds	r3, r2, r3
 8000d9c:	185b      	adds	r3, r3, r1
 8000d9e:	2200      	movs	r2, #0
 8000da0:	701a      	strb	r2, [r3, #0]
		cdc_data[ch].session.connected = 0;
 8000da2:	1cfb      	adds	r3, r7, #3
 8000da4:	781b      	ldrb	r3, [r3, #0]
 8000da6:	4a0d      	ldr	r2, [pc, #52]	@ (8000ddc <cdc_LineStateHandler+0xb4>)
 8000da8:	2190      	movs	r1, #144	@ 0x90
 8000daa:	209c      	movs	r0, #156	@ 0x9c
 8000dac:	4343      	muls	r3, r0
 8000dae:	18d3      	adds	r3, r2, r3
 8000db0:	185b      	adds	r3, r3, r1
 8000db2:	2200      	movs	r2, #0
 8000db4:	701a      	strb	r2, [r3, #0]
		VCP_ConnStatus(ch, 0);
 8000db6:	1cfb      	adds	r3, r7, #3
 8000db8:	781b      	ldrb	r3, [r3, #0]
 8000dba:	2100      	movs	r1, #0
 8000dbc:	0018      	movs	r0, r3
 8000dbe:	f7ff fe03 	bl	80009c8 <VCP_ConnStatus>
	}
	cdc_data[ch].ControlLineStateChanged = 0;
 8000dc2:	1cfb      	adds	r3, r7, #3
 8000dc4:	781b      	ldrb	r3, [r3, #0]
 8000dc6:	4a05      	ldr	r2, [pc, #20]	@ (8000ddc <cdc_LineStateHandler+0xb4>)
 8000dc8:	219c      	movs	r1, #156	@ 0x9c
 8000dca:	434b      	muls	r3, r1
 8000dcc:	18d3      	adds	r3, r2, r3
 8000dce:	330f      	adds	r3, #15
 8000dd0:	2200      	movs	r2, #0
 8000dd2:	701a      	strb	r2, [r3, #0]
}
 8000dd4:	46c0      	nop			@ (mov r8, r8)
 8000dd6:	46bd      	mov	sp, r7
 8000dd8:	b002      	add	sp, #8
 8000dda:	bd80      	pop	{r7, pc}
 8000ddc:	20000004 	.word	0x20000004

08000de0 <vcom_prompt>:
	NVIC_SetPendingIRQ(vcomcfg[ch].rx_irqn);
}

// signon/prompt display, may be customized
__attribute__ ((weak)) void vcom_prompt(uint8_t ch, bool signon)
{
 8000de0:	b580      	push	{r7, lr}
 8000de2:	b082      	sub	sp, #8
 8000de4:	af00      	add	r7, sp, #0
 8000de6:	0002      	movs	r2, r0
 8000de8:	1dfb      	adds	r3, r7, #7
 8000dea:	701a      	strb	r2, [r3, #0]
 8000dec:	1dbb      	adds	r3, r7, #6
 8000dee:	1c0a      	adds	r2, r1, #0
 8000df0:	701a      	strb	r2, [r3, #0]
	vcom_putstring(ch, signon ? vcomcfg[ch].signon : vcomcfg[ch].prompt);
 8000df2:	1dbb      	adds	r3, r7, #6
 8000df4:	781b      	ldrb	r3, [r3, #0]
 8000df6:	2b00      	cmp	r3, #0
 8000df8:	d00a      	beq.n	8000e10 <vcom_prompt+0x30>
 8000dfa:	1dfb      	adds	r3, r7, #7
 8000dfc:	781a      	ldrb	r2, [r3, #0]
 8000dfe:	490e      	ldr	r1, [pc, #56]	@ (8000e38 <vcom_prompt+0x58>)
 8000e00:	0013      	movs	r3, r2
 8000e02:	005b      	lsls	r3, r3, #1
 8000e04:	189b      	adds	r3, r3, r2
 8000e06:	009b      	lsls	r3, r3, #2
 8000e08:	18cb      	adds	r3, r1, r3
 8000e0a:	3304      	adds	r3, #4
 8000e0c:	681b      	ldr	r3, [r3, #0]
 8000e0e:	e009      	b.n	8000e24 <vcom_prompt+0x44>
 8000e10:	1dfb      	adds	r3, r7, #7
 8000e12:	781a      	ldrb	r2, [r3, #0]
 8000e14:	4908      	ldr	r1, [pc, #32]	@ (8000e38 <vcom_prompt+0x58>)
 8000e16:	0013      	movs	r3, r2
 8000e18:	005b      	lsls	r3, r3, #1
 8000e1a:	189b      	adds	r3, r3, r2
 8000e1c:	009b      	lsls	r3, r3, #2
 8000e1e:	18cb      	adds	r3, r1, r3
 8000e20:	3308      	adds	r3, #8
 8000e22:	681b      	ldr	r3, [r3, #0]
 8000e24:	1dfa      	adds	r2, r7, #7
 8000e26:	7812      	ldrb	r2, [r2, #0]
 8000e28:	0019      	movs	r1, r3
 8000e2a:	0010      	movs	r0, r2
 8000e2c:	f7ff fd34 	bl	8000898 <vcom_putstring>
}
 8000e30:	46c0      	nop			@ (mov r8, r8)
 8000e32:	46bd      	mov	sp, r7
 8000e34:	b002      	add	sp, #8
 8000e36:	bd80      	pop	{r7, pc}
 8000e38:	08002c04 	.word	0x08002c04

08000e3c <VCOM_rx_IRQHandler>:

// data reception and state change handler, priority lower than USB hw interrupt
void VCOM_rx_IRQHandler(uint8_t ch)
{
 8000e3c:	b5b0      	push	{r4, r5, r7, lr}
 8000e3e:	b084      	sub	sp, #16
 8000e40:	af00      	add	r7, sp, #0
 8000e42:	0002      	movs	r2, r0
 8000e44:	1dfb      	adds	r3, r7, #7
 8000e46:	701a      	strb	r2, [r3, #0]
	if (cdc_data[ch].LineCodingChanged)
 8000e48:	1dfb      	adds	r3, r7, #7
 8000e4a:	781b      	ldrb	r3, [r3, #0]
 8000e4c:	4a97      	ldr	r2, [pc, #604]	@ (80010ac <VCOM_rx_IRQHandler+0x270>)
 8000e4e:	219c      	movs	r1, #156	@ 0x9c
 8000e50:	434b      	muls	r3, r1
 8000e52:	18d3      	adds	r3, r2, r3
 8000e54:	330e      	adds	r3, #14
 8000e56:	781b      	ldrb	r3, [r3, #0]
 8000e58:	2b00      	cmp	r3, #0
 8000e5a:	d008      	beq.n	8000e6e <VCOM_rx_IRQHandler+0x32>
	{
		cdc_data[ch].LineCodingChanged = 0;
 8000e5c:	1dfb      	adds	r3, r7, #7
 8000e5e:	781b      	ldrb	r3, [r3, #0]
 8000e60:	4a92      	ldr	r2, [pc, #584]	@ (80010ac <VCOM_rx_IRQHandler+0x270>)
 8000e62:	219c      	movs	r1, #156	@ 0x9c
 8000e64:	434b      	muls	r3, r1
 8000e66:	18d3      	adds	r3, r2, r3
 8000e68:	330e      	adds	r3, #14
 8000e6a:	2200      	movs	r2, #0
 8000e6c:	701a      	strb	r2, [r3, #0]
	}
	if (cdc_data[ch].ControlLineStateChanged)
	{
		// handle if not handled by LineStateHandler
	}
	if (cdc_data[ch].session.RxLength)
 8000e6e:	1dfb      	adds	r3, r7, #7
 8000e70:	781b      	ldrb	r3, [r3, #0]
 8000e72:	4a8e      	ldr	r2, [pc, #568]	@ (80010ac <VCOM_rx_IRQHandler+0x270>)
 8000e74:	2196      	movs	r1, #150	@ 0x96
 8000e76:	209c      	movs	r0, #156	@ 0x9c
 8000e78:	4343      	muls	r3, r0
 8000e7a:	18d3      	adds	r3, r2, r3
 8000e7c:	185b      	adds	r3, r3, r1
 8000e7e:	781b      	ldrb	r3, [r3, #0]
 8000e80:	b2db      	uxtb	r3, r3
 8000e82:	2b00      	cmp	r3, #0
 8000e84:	d100      	bne.n	8000e88 <VCOM_rx_IRQHandler+0x4c>
 8000e86:	e097      	b.n	8000fb8 <VCOM_rx_IRQHandler+0x17c>
	{
		cdc_data[ch].session.connected = 1;
 8000e88:	1dfb      	adds	r3, r7, #7
 8000e8a:	781b      	ldrb	r3, [r3, #0]
 8000e8c:	4a87      	ldr	r2, [pc, #540]	@ (80010ac <VCOM_rx_IRQHandler+0x270>)
 8000e8e:	2190      	movs	r1, #144	@ 0x90
 8000e90:	209c      	movs	r0, #156	@ 0x9c
 8000e92:	4343      	muls	r3, r0
 8000e94:	18d3      	adds	r3, r2, r3
 8000e96:	185b      	adds	r3, r3, r1
 8000e98:	2201      	movs	r2, #1
 8000e9a:	701a      	strb	r2, [r3, #0]
		VCP_ConnStatus(ch, 1);
 8000e9c:	1dfb      	adds	r3, r7, #7
 8000e9e:	781b      	ldrb	r3, [r3, #0]
 8000ea0:	2101      	movs	r1, #1
 8000ea2:	0018      	movs	r0, r3
 8000ea4:	f7ff fd90 	bl	80009c8 <VCP_ConnStatus>
		uint8_t *rxptr = cdc_data[ch].RxData; //
 8000ea8:	1dfb      	adds	r3, r7, #7
 8000eaa:	781b      	ldrb	r3, [r3, #0]
 8000eac:	229c      	movs	r2, #156	@ 0x9c
 8000eae:	4353      	muls	r3, r2
 8000eb0:	3310      	adds	r3, #16
 8000eb2:	001a      	movs	r2, r3
 8000eb4:	4b7d      	ldr	r3, [pc, #500]	@ (80010ac <VCOM_rx_IRQHandler+0x270>)
 8000eb6:	18d3      	adds	r3, r2, r3
 8000eb8:	60fb      	str	r3, [r7, #12]
		uint8_t pival = 0;
 8000eba:	230b      	movs	r3, #11
 8000ebc:	18fb      	adds	r3, r7, r3
 8000ebe:	2200      	movs	r2, #0
 8000ec0:	701a      	strb	r2, [r3, #0]
		for (uint8_t i = 0; i < cdc_data[ch].session.RxLength; i++)
 8000ec2:	230a      	movs	r3, #10
 8000ec4:	18fb      	adds	r3, r7, r3
 8000ec6:	2200      	movs	r2, #0
 8000ec8:	701a      	strb	r2, [r3, #0]
 8000eca:	e030      	b.n	8000f2e <VCOM_rx_IRQHandler+0xf2>
		{
			pival = vcom_process_input(ch, *rxptr++);
 8000ecc:	68fb      	ldr	r3, [r7, #12]
 8000ece:	1c5a      	adds	r2, r3, #1
 8000ed0:	60fa      	str	r2, [r7, #12]
 8000ed2:	781a      	ldrb	r2, [r3, #0]
 8000ed4:	250b      	movs	r5, #11
 8000ed6:	197c      	adds	r4, r7, r5
 8000ed8:	1dfb      	adds	r3, r7, #7
 8000eda:	781b      	ldrb	r3, [r3, #0]
 8000edc:	0011      	movs	r1, r2
 8000ede:	0018      	movs	r0, r3
 8000ee0:	f7ff fd5c 	bl	800099c <vcom_process_input>
 8000ee4:	0003      	movs	r3, r0
 8000ee6:	7023      	strb	r3, [r4, #0]
			cdc_data[ch].session.prompt_rq |= pival & PIRET_PROMPTRQ;
 8000ee8:	1dfb      	adds	r3, r7, #7
 8000eea:	781b      	ldrb	r3, [r3, #0]
 8000eec:	4a6f      	ldr	r2, [pc, #444]	@ (80010ac <VCOM_rx_IRQHandler+0x270>)
 8000eee:	2192      	movs	r1, #146	@ 0x92
 8000ef0:	209c      	movs	r0, #156	@ 0x9c
 8000ef2:	4343      	muls	r3, r0
 8000ef4:	18d3      	adds	r3, r2, r3
 8000ef6:	185b      	adds	r3, r3, r1
 8000ef8:	781b      	ldrb	r3, [r3, #0]
 8000efa:	0019      	movs	r1, r3
 8000efc:	197b      	adds	r3, r7, r5
 8000efe:	781b      	ldrb	r3, [r3, #0]
 8000f00:	2201      	movs	r2, #1
 8000f02:	4013      	ands	r3, r2
 8000f04:	000a      	movs	r2, r1
 8000f06:	431a      	orrs	r2, r3
 8000f08:	1dfb      	adds	r3, r7, #7
 8000f0a:	781b      	ldrb	r3, [r3, #0]
 8000f0c:	1e51      	subs	r1, r2, #1
 8000f0e:	418a      	sbcs	r2, r1
 8000f10:	b2d4      	uxtb	r4, r2
 8000f12:	4a66      	ldr	r2, [pc, #408]	@ (80010ac <VCOM_rx_IRQHandler+0x270>)
 8000f14:	2192      	movs	r1, #146	@ 0x92
 8000f16:	209c      	movs	r0, #156	@ 0x9c
 8000f18:	4343      	muls	r3, r0
 8000f1a:	18d3      	adds	r3, r2, r3
 8000f1c:	185b      	adds	r3, r3, r1
 8000f1e:	1c22      	adds	r2, r4, #0
 8000f20:	701a      	strb	r2, [r3, #0]
		for (uint8_t i = 0; i < cdc_data[ch].session.RxLength; i++)
 8000f22:	210a      	movs	r1, #10
 8000f24:	187b      	adds	r3, r7, r1
 8000f26:	781a      	ldrb	r2, [r3, #0]
 8000f28:	187b      	adds	r3, r7, r1
 8000f2a:	3201      	adds	r2, #1
 8000f2c:	701a      	strb	r2, [r3, #0]
 8000f2e:	1dfb      	adds	r3, r7, #7
 8000f30:	781b      	ldrb	r3, [r3, #0]
 8000f32:	4a5e      	ldr	r2, [pc, #376]	@ (80010ac <VCOM_rx_IRQHandler+0x270>)
 8000f34:	2196      	movs	r1, #150	@ 0x96
 8000f36:	209c      	movs	r0, #156	@ 0x9c
 8000f38:	4343      	muls	r3, r0
 8000f3a:	18d3      	adds	r3, r2, r3
 8000f3c:	185b      	adds	r3, r3, r1
 8000f3e:	781b      	ldrb	r3, [r3, #0]
 8000f40:	b2db      	uxtb	r3, r3
 8000f42:	220a      	movs	r2, #10
 8000f44:	18ba      	adds	r2, r7, r2
 8000f46:	7812      	ldrb	r2, [r2, #0]
 8000f48:	429a      	cmp	r2, r3
 8000f4a:	d3bf      	bcc.n	8000ecc <VCOM_rx_IRQHandler+0x90>
		}
		cdc_data[ch].session.RxLength = 0;
 8000f4c:	1dfb      	adds	r3, r7, #7
 8000f4e:	781b      	ldrb	r3, [r3, #0]
 8000f50:	4a56      	ldr	r2, [pc, #344]	@ (80010ac <VCOM_rx_IRQHandler+0x270>)
 8000f52:	2196      	movs	r1, #150	@ 0x96
 8000f54:	209c      	movs	r0, #156	@ 0x9c
 8000f56:	4343      	muls	r3, r0
 8000f58:	18d3      	adds	r3, r2, r3
 8000f5a:	185b      	adds	r3, r3, r1
 8000f5c:	2200      	movs	r2, #0
 8000f5e:	701a      	strb	r2, [r3, #0]
		cdc_data[ch].session.autonul = 0;
 8000f60:	1dfb      	adds	r3, r7, #7
 8000f62:	781b      	ldrb	r3, [r3, #0]
 8000f64:	4a51      	ldr	r2, [pc, #324]	@ (80010ac <VCOM_rx_IRQHandler+0x270>)
 8000f66:	2194      	movs	r1, #148	@ 0x94
 8000f68:	209c      	movs	r0, #156	@ 0x9c
 8000f6a:	4343      	muls	r3, r0
 8000f6c:	18d3      	adds	r3, r2, r3
 8000f6e:	185b      	adds	r3, r3, r1
 8000f70:	2200      	movs	r2, #0
 8000f72:	701a      	strb	r2, [r3, #0]
		cdc_data[ch].session.autonul_timer = (pival & PIRET_AUTONUL) ? AUTONUL_TOUT : 0;
 8000f74:	230b      	movs	r3, #11
 8000f76:	18fb      	adds	r3, r7, r3
 8000f78:	781b      	ldrb	r3, [r3, #0]
 8000f7a:	2210      	movs	r2, #16
 8000f7c:	4013      	ands	r3, r2
 8000f7e:	d001      	beq.n	8000f84 <VCOM_rx_IRQHandler+0x148>
 8000f80:	2405      	movs	r4, #5
 8000f82:	e000      	b.n	8000f86 <VCOM_rx_IRQHandler+0x14a>
 8000f84:	2400      	movs	r4, #0
 8000f86:	1dfb      	adds	r3, r7, #7
 8000f88:	781b      	ldrb	r3, [r3, #0]
 8000f8a:	4a48      	ldr	r2, [pc, #288]	@ (80010ac <VCOM_rx_IRQHandler+0x270>)
 8000f8c:	2195      	movs	r1, #149	@ 0x95
 8000f8e:	209c      	movs	r0, #156	@ 0x9c
 8000f90:	4343      	muls	r3, r0
 8000f92:	18d3      	adds	r3, r2, r3
 8000f94:	185b      	adds	r3, r3, r1
 8000f96:	1c22      	adds	r2, r4, #0
 8000f98:	701a      	strb	r2, [r3, #0]
		allow_rx(ConfigDesc.cdc[ch].cdcdesc.cdcout.bEndpointAddress);
 8000f9a:	1dfb      	adds	r3, r7, #7
 8000f9c:	781a      	ldrb	r2, [r3, #0]
 8000f9e:	4944      	ldr	r1, [pc, #272]	@ (80010b0 <VCOM_rx_IRQHandler+0x274>)
 8000fa0:	2046      	movs	r0, #70	@ 0x46
 8000fa2:	0013      	movs	r3, r2
 8000fa4:	015b      	lsls	r3, r3, #5
 8000fa6:	189b      	adds	r3, r3, r2
 8000fa8:	005b      	lsls	r3, r3, #1
 8000faa:	18cb      	adds	r3, r1, r3
 8000fac:	181b      	adds	r3, r3, r0
 8000fae:	781b      	ldrb	r3, [r3, #0]
 8000fb0:	0018      	movs	r0, r3
 8000fb2:	f7ff fd17 	bl	80009e4 <allow_rx>
 8000fb6:	e035      	b.n	8001024 <VCOM_rx_IRQHandler+0x1e8>
	}
	else if (cdc_data[ch].session.autonul)
 8000fb8:	1dfb      	adds	r3, r7, #7
 8000fba:	781b      	ldrb	r3, [r3, #0]
 8000fbc:	4a3b      	ldr	r2, [pc, #236]	@ (80010ac <VCOM_rx_IRQHandler+0x270>)
 8000fbe:	2194      	movs	r1, #148	@ 0x94
 8000fc0:	209c      	movs	r0, #156	@ 0x9c
 8000fc2:	4343      	muls	r3, r0
 8000fc4:	18d3      	adds	r3, r2, r3
 8000fc6:	185b      	adds	r3, r3, r1
 8000fc8:	781b      	ldrb	r3, [r3, #0]
 8000fca:	2b00      	cmp	r3, #0
 8000fcc:	d02a      	beq.n	8001024 <VCOM_rx_IRQHandler+0x1e8>
	{
		cdc_data[ch].session.autonul = 0;
 8000fce:	1dfb      	adds	r3, r7, #7
 8000fd0:	781b      	ldrb	r3, [r3, #0]
 8000fd2:	4a36      	ldr	r2, [pc, #216]	@ (80010ac <VCOM_rx_IRQHandler+0x270>)
 8000fd4:	2194      	movs	r1, #148	@ 0x94
 8000fd6:	209c      	movs	r0, #156	@ 0x9c
 8000fd8:	4343      	muls	r3, r0
 8000fda:	18d3      	adds	r3, r2, r3
 8000fdc:	185b      	adds	r3, r3, r1
 8000fde:	2200      	movs	r2, #0
 8000fe0:	701a      	strb	r2, [r3, #0]
		cdc_data[ch].session.prompt_rq |= vcom_process_input(ch, 0) & PIRET_PROMPTRQ;
 8000fe2:	1dfb      	adds	r3, r7, #7
 8000fe4:	781b      	ldrb	r3, [r3, #0]
 8000fe6:	2100      	movs	r1, #0
 8000fe8:	0018      	movs	r0, r3
 8000fea:	f7ff fcd7 	bl	800099c <vcom_process_input>
 8000fee:	0003      	movs	r3, r0
 8000ff0:	001a      	movs	r2, r3
 8000ff2:	2301      	movs	r3, #1
 8000ff4:	4013      	ands	r3, r2
 8000ff6:	1dfa      	adds	r2, r7, #7
 8000ff8:	7812      	ldrb	r2, [r2, #0]
 8000ffa:	492c      	ldr	r1, [pc, #176]	@ (80010ac <VCOM_rx_IRQHandler+0x270>)
 8000ffc:	2092      	movs	r0, #146	@ 0x92
 8000ffe:	249c      	movs	r4, #156	@ 0x9c
 8001000:	4362      	muls	r2, r4
 8001002:	188a      	adds	r2, r1, r2
 8001004:	1812      	adds	r2, r2, r0
 8001006:	7812      	ldrb	r2, [r2, #0]
 8001008:	431a      	orrs	r2, r3
 800100a:	1dfb      	adds	r3, r7, #7
 800100c:	781b      	ldrb	r3, [r3, #0]
 800100e:	1e51      	subs	r1, r2, #1
 8001010:	418a      	sbcs	r2, r1
 8001012:	b2d4      	uxtb	r4, r2
 8001014:	4a25      	ldr	r2, [pc, #148]	@ (80010ac <VCOM_rx_IRQHandler+0x270>)
 8001016:	2192      	movs	r1, #146	@ 0x92
 8001018:	209c      	movs	r0, #156	@ 0x9c
 800101a:	4343      	muls	r3, r0
 800101c:	18d3      	adds	r3, r2, r3
 800101e:	185b      	adds	r3, r3, r1
 8001020:	1c22      	adds	r2, r4, #0
 8001022:	701a      	strb	r2, [r3, #0]
	}
	if (cdc_data[ch].session.signon_rq)
 8001024:	1dfb      	adds	r3, r7, #7
 8001026:	781b      	ldrb	r3, [r3, #0]
 8001028:	4a20      	ldr	r2, [pc, #128]	@ (80010ac <VCOM_rx_IRQHandler+0x270>)
 800102a:	2191      	movs	r1, #145	@ 0x91
 800102c:	209c      	movs	r0, #156	@ 0x9c
 800102e:	4343      	muls	r3, r0
 8001030:	18d3      	adds	r3, r2, r3
 8001032:	185b      	adds	r3, r3, r1
 8001034:	781b      	ldrb	r3, [r3, #0]
 8001036:	2b00      	cmp	r3, #0
 8001038:	d019      	beq.n	800106e <VCOM_rx_IRQHandler+0x232>
	{
		cdc_data[ch].session.signon_rq = 0;
 800103a:	1dfb      	adds	r3, r7, #7
 800103c:	781b      	ldrb	r3, [r3, #0]
 800103e:	4a1b      	ldr	r2, [pc, #108]	@ (80010ac <VCOM_rx_IRQHandler+0x270>)
 8001040:	2191      	movs	r1, #145	@ 0x91
 8001042:	209c      	movs	r0, #156	@ 0x9c
 8001044:	4343      	muls	r3, r0
 8001046:	18d3      	adds	r3, r2, r3
 8001048:	185b      	adds	r3, r3, r1
 800104a:	2200      	movs	r2, #0
 800104c:	701a      	strb	r2, [r3, #0]
		vcom_prompt(ch, 1);
 800104e:	1dfb      	adds	r3, r7, #7
 8001050:	781b      	ldrb	r3, [r3, #0]
 8001052:	2101      	movs	r1, #1
 8001054:	0018      	movs	r0, r3
 8001056:	f7ff fec3 	bl	8000de0 <vcom_prompt>
		cdc_data[ch].session.prompt_rq = 1;
 800105a:	1dfb      	adds	r3, r7, #7
 800105c:	781b      	ldrb	r3, [r3, #0]
 800105e:	4a13      	ldr	r2, [pc, #76]	@ (80010ac <VCOM_rx_IRQHandler+0x270>)
 8001060:	2192      	movs	r1, #146	@ 0x92
 8001062:	209c      	movs	r0, #156	@ 0x9c
 8001064:	4343      	muls	r3, r0
 8001066:	18d3      	adds	r3, r2, r3
 8001068:	185b      	adds	r3, r3, r1
 800106a:	2201      	movs	r2, #1
 800106c:	701a      	strb	r2, [r3, #0]
	}
	if (cdc_data[ch].session.prompt_rq)
 800106e:	1dfb      	adds	r3, r7, #7
 8001070:	781b      	ldrb	r3, [r3, #0]
 8001072:	4a0e      	ldr	r2, [pc, #56]	@ (80010ac <VCOM_rx_IRQHandler+0x270>)
 8001074:	2192      	movs	r1, #146	@ 0x92
 8001076:	209c      	movs	r0, #156	@ 0x9c
 8001078:	4343      	muls	r3, r0
 800107a:	18d3      	adds	r3, r2, r3
 800107c:	185b      	adds	r3, r3, r1
 800107e:	781b      	ldrb	r3, [r3, #0]
 8001080:	2b00      	cmp	r3, #0
 8001082:	d00f      	beq.n	80010a4 <VCOM_rx_IRQHandler+0x268>
	{
		cdc_data[ch].session.prompt_rq = 0;
 8001084:	1dfb      	adds	r3, r7, #7
 8001086:	781b      	ldrb	r3, [r3, #0]
 8001088:	4a08      	ldr	r2, [pc, #32]	@ (80010ac <VCOM_rx_IRQHandler+0x270>)
 800108a:	2192      	movs	r1, #146	@ 0x92
 800108c:	209c      	movs	r0, #156	@ 0x9c
 800108e:	4343      	muls	r3, r0
 8001090:	18d3      	adds	r3, r2, r3
 8001092:	185b      	adds	r3, r3, r1
 8001094:	2200      	movs	r2, #0
 8001096:	701a      	strb	r2, [r3, #0]
		vcom_prompt(ch, 0);
 8001098:	1dfb      	adds	r3, r7, #7
 800109a:	781b      	ldrb	r3, [r3, #0]
 800109c:	2100      	movs	r1, #0
 800109e:	0018      	movs	r0, r3
 80010a0:	f7ff fe9e 	bl	8000de0 <vcom_prompt>
	}
}
 80010a4:	46c0      	nop			@ (mov r8, r8)
 80010a6:	46bd      	mov	sp, r7
 80010a8:	b004      	add	sp, #16
 80010aa:	bdb0      	pop	{r4, r5, r7, pc}
 80010ac:	20000004 	.word	0x20000004
 80010b0:	08002b5c 	.word	0x08002b5c

080010b4 <RCC_CRS_IRQHandler>:

void VCOM0_rx_IRQHandler(void)
{
 80010b4:	b580      	push	{r7, lr}
 80010b6:	af00      	add	r7, sp, #0
	VCOM_rx_IRQHandler(0);
 80010b8:	2000      	movs	r0, #0
 80010ba:	f7ff febf 	bl	8000e3c <VCOM_rx_IRQHandler>
}
 80010be:	46c0      	nop			@ (mov r8, r8)
 80010c0:	46bd      	mov	sp, r7
 80010c2:	bd80      	pop	{r7, pc}

080010c4 <VCOM_tx_IRQHandler>:

// transmit handler, must have the same priority as USB hw interrupt
void VCOM_tx_IRQHandler(uint8_t ch)
{
 80010c4:	b590      	push	{r4, r7, lr}
 80010c6:	b087      	sub	sp, #28
 80010c8:	af02      	add	r7, sp, #8
 80010ca:	0002      	movs	r2, r0
 80010cc:	1dfb      	adds	r3, r7, #7
 80010ce:	701a      	strb	r2, [r3, #0]
	struct cdc_data_ *cdp = &cdc_data[ch];
 80010d0:	1dfb      	adds	r3, r7, #7
 80010d2:	781b      	ldrb	r3, [r3, #0]
 80010d4:	229c      	movs	r2, #156	@ 0x9c
 80010d6:	435a      	muls	r2, r3
 80010d8:	4b22      	ldr	r3, [pc, #136]	@ (8001164 <VCOM_tx_IRQHandler+0xa0>)
 80010da:	18d3      	adds	r3, r2, r3
 80010dc:	60fb      	str	r3, [r7, #12]

	NVIC_DisableIRQ(vcomcfg[ch].tx_irqn);
 80010de:	1dfb      	adds	r3, r7, #7
 80010e0:	781a      	ldrb	r2, [r3, #0]
 80010e2:	4921      	ldr	r1, [pc, #132]	@ (8001168 <VCOM_tx_IRQHandler+0xa4>)
 80010e4:	0013      	movs	r3, r2
 80010e6:	005b      	lsls	r3, r3, #1
 80010e8:	189b      	adds	r3, r3, r2
 80010ea:	009b      	lsls	r3, r3, #2
 80010ec:	18cb      	adds	r3, r1, r3
 80010ee:	3301      	adds	r3, #1
 80010f0:	781b      	ldrb	r3, [r3, #0]
 80010f2:	b25b      	sxtb	r3, r3
 80010f4:	0018      	movs	r0, r3
 80010f6:	f7ff fa39 	bl	800056c <__NVIC_DisableIRQ>
//	if (cdp->TxLength)
	{
		if (cdp->session.TxLength == CDC_DATA_EP_SIZE)
 80010fa:	68fb      	ldr	r3, [r7, #12]
 80010fc:	2298      	movs	r2, #152	@ 0x98
 80010fe:	5c9b      	ldrb	r3, [r3, r2]
 8001100:	b2db      	uxtb	r3, r3
 8001102:	2b40      	cmp	r3, #64	@ 0x40
 8001104:	d10d      	bne.n	8001122 <VCOM_tx_IRQHandler+0x5e>
			NVIC_SetPendingIRQ(vcomcfg[ch].tx_irqn);	// another packet must follow, data or ZLP
 8001106:	1dfb      	adds	r3, r7, #7
 8001108:	781a      	ldrb	r2, [r3, #0]
 800110a:	4917      	ldr	r1, [pc, #92]	@ (8001168 <VCOM_tx_IRQHandler+0xa4>)
 800110c:	0013      	movs	r3, r2
 800110e:	005b      	lsls	r3, r3, #1
 8001110:	189b      	adds	r3, r3, r2
 8001112:	009b      	lsls	r3, r3, #2
 8001114:	18cb      	adds	r3, r1, r3
 8001116:	3301      	adds	r3, #1
 8001118:	781b      	ldrb	r3, [r3, #0]
 800111a:	b25b      	sxtb	r3, r3
 800111c:	0018      	movs	r0, r3
 800111e:	f7ff fa47 	bl	80005b0 <__NVIC_SetPendingIRQ>
		USBdev_SendData(&usbdev, ConfigDesc.cdc[ch].cdcdesc.cdcin.bEndpointAddress,
 8001122:	1dfb      	adds	r3, r7, #7
 8001124:	781a      	ldrb	r2, [r3, #0]
 8001126:	4911      	ldr	r1, [pc, #68]	@ (800116c <VCOM_tx_IRQHandler+0xa8>)
 8001128:	203f      	movs	r0, #63	@ 0x3f
 800112a:	0013      	movs	r3, r2
 800112c:	015b      	lsls	r3, r3, #5
 800112e:	189b      	adds	r3, r3, r2
 8001130:	005b      	lsls	r3, r3, #1
 8001132:	18cb      	adds	r3, r1, r3
 8001134:	181b      	adds	r3, r3, r0
 8001136:	7819      	ldrb	r1, [r3, #0]
			cdp->TxData, cdp->session.TxLength, 0);
 8001138:	68fb      	ldr	r3, [r7, #12]
 800113a:	3350      	adds	r3, #80	@ 0x50
 800113c:	001a      	movs	r2, r3
 800113e:	68fb      	ldr	r3, [r7, #12]
 8001140:	2098      	movs	r0, #152	@ 0x98
 8001142:	5c1b      	ldrb	r3, [r3, r0]
 8001144:	b2db      	uxtb	r3, r3
		USBdev_SendData(&usbdev, ConfigDesc.cdc[ch].cdcdesc.cdcin.bEndpointAddress,
 8001146:	001c      	movs	r4, r3
 8001148:	4809      	ldr	r0, [pc, #36]	@ (8001170 <VCOM_tx_IRQHandler+0xac>)
 800114a:	2300      	movs	r3, #0
 800114c:	9300      	str	r3, [sp, #0]
 800114e:	0023      	movs	r3, r4
 8001150:	f000 faa8 	bl	80016a4 <USBdev_SendData>
		cdp->session.TxLength = 0;	// clear counter
 8001154:	68fb      	ldr	r3, [r7, #12]
 8001156:	2298      	movs	r2, #152	@ 0x98
 8001158:	2100      	movs	r1, #0
 800115a:	5499      	strb	r1, [r3, r2]
	}
}
 800115c:	46c0      	nop			@ (mov r8, r8)
 800115e:	46bd      	mov	sp, r7
 8001160:	b005      	add	sp, #20
 8001162:	bd90      	pop	{r4, r7, pc}
 8001164:	20000004 	.word	0x20000004
 8001168:	08002c04 	.word	0x08002c04
 800116c:	08002b5c 	.word	0x08002b5c
 8001170:	08002c1c 	.word	0x08002c1c

08001174 <ADC1_IRQHandler>:

void VCOM0_tx_IRQHandler(void)
{
 8001174:	b580      	push	{r7, lr}
 8001176:	af00      	add	r7, sp, #0
	VCOM_tx_IRQHandler(0);
 8001178:	2000      	movs	r0, #0
 800117a:	f7ff ffa3 	bl	80010c4 <VCOM_tx_IRQHandler>
}
 800117e:	46c0      	nop			@ (mov r8, r8)
 8001180:	46bd      	mov	sp, r7
 8001182:	bd80      	pop	{r7, pc}

08001184 <TIM16_IRQHandler>:

#if USBD_CDC_CHANNELS > 1
void VCOM1_rx_IRQHandler(void)
{
 8001184:	b580      	push	{r7, lr}
 8001186:	af00      	add	r7, sp, #0
	VCOM_rx_IRQHandler(1);
 8001188:	2001      	movs	r0, #1
 800118a:	f7ff fe57 	bl	8000e3c <VCOM_rx_IRQHandler>
}
 800118e:	46c0      	nop			@ (mov r8, r8)
 8001190:	46bd      	mov	sp, r7
 8001192:	bd80      	pop	{r7, pc}

08001194 <TIM17_IRQHandler>:

// transmit handler, must have the same priority as USB hw interrupt
void VCOM1_tx_IRQHandler(void)
{
 8001194:	b580      	push	{r7, lr}
 8001196:	af00      	add	r7, sp, #0
	VCOM_tx_IRQHandler(1);
 8001198:	2001      	movs	r0, #1
 800119a:	f7ff ff93 	bl	80010c4 <VCOM_tx_IRQHandler>
}
 800119e:	46c0      	nop			@ (mov r8, r8)
 80011a0:	46bd      	mov	sp, r7
 80011a2:	bd80      	pop	{r7, pc}

080011a4 <HIDoutHandler>:
#endif
};

// not used, report send via control pipe
static void HIDoutHandler(const struct usbdevice_ *usbd, uint8_t epn)
{
 80011a4:	b580      	push	{r7, lr}
 80011a6:	b082      	sub	sp, #8
 80011a8:	af00      	add	r7, sp, #0
 80011aa:	6078      	str	r0, [r7, #4]
 80011ac:	000a      	movs	r2, r1
 80011ae:	1cfb      	adds	r3, r7, #3
 80011b0:	701a      	strb	r2, [r3, #0]
	hid_data.OutReport[2] = hid_data.OutReport[0];
 80011b2:	4b04      	ldr	r3, [pc, #16]	@ (80011c4 <HIDoutHandler+0x20>)
 80011b4:	7b9a      	ldrb	r2, [r3, #14]
 80011b6:	4b03      	ldr	r3, [pc, #12]	@ (80011c4 <HIDoutHandler+0x20>)
 80011b8:	741a      	strb	r2, [r3, #16]
}
 80011ba:	46c0      	nop			@ (mov r8, r8)
 80011bc:	46bd      	mov	sp, r7
 80011be:	b002      	add	sp, #8
 80011c0:	bd80      	pop	{r7, pc}
 80011c2:	46c0      	nop			@ (mov r8, r8)
 80011c4:	200001a4 	.word	0x200001a4

080011c8 <DataReceivedHandler>:

// Application routines ==================================================

// called form USB hw interrupt
void DataReceivedHandler(const struct usbdevice_ *usbd, uint8_t epn)
{
 80011c8:	b580      	push	{r7, lr}
 80011ca:	b084      	sub	sp, #16
 80011cc:	af00      	add	r7, sp, #0
 80011ce:	6078      	str	r0, [r7, #4]
 80011d0:	000a      	movs	r2, r1
 80011d2:	1cfb      	adds	r3, r7, #3
 80011d4:	701a      	strb	r2, [r3, #0]
	uint16_t length = usbd->outep[epn].count;
 80011d6:	687b      	ldr	r3, [r7, #4]
 80011d8:	691a      	ldr	r2, [r3, #16]
 80011da:	1cfb      	adds	r3, r7, #3
 80011dc:	781b      	ldrb	r3, [r3, #0]
 80011de:	00db      	lsls	r3, r3, #3
 80011e0:	18d2      	adds	r2, r2, r3
 80011e2:	210e      	movs	r1, #14
 80011e4:	187b      	adds	r3, r7, r1
 80011e6:	8892      	ldrh	r2, [r2, #4]
 80011e8:	801a      	strh	r2, [r3, #0]
	if (length)
 80011ea:	187b      	adds	r3, r7, r1
 80011ec:	881b      	ldrh	r3, [r3, #0]
 80011ee:	2b00      	cmp	r3, #0
 80011f0:	d01d      	beq.n	800122e <DataReceivedHandler+0x66>
			USBdev_SendData(usbd, CDC0_DATA_IN_EP, (const uint8_t *)s, length, 1);
		}
		else
#endif
		{
			switch (epn)
 80011f2:	1cfb      	adds	r3, r7, #3
 80011f4:	781b      	ldrb	r3, [r3, #0]
 80011f6:	2b02      	cmp	r3, #2
 80011f8:	d002      	beq.n	8001200 <DataReceivedHandler+0x38>
 80011fa:	2b04      	cmp	r3, #4
 80011fc:	d00b      	beq.n	8001216 <DataReceivedHandler+0x4e>
			}
		}
	}
	else
		usbd->hwif->EnableRx(usbd, epn);
}
 80011fe:	e01f      	b.n	8001240 <DataReceivedHandler+0x78>
				cdc_data[0].session.RxLength = length;
 8001200:	230e      	movs	r3, #14
 8001202:	18fb      	adds	r3, r7, r3
 8001204:	881b      	ldrh	r3, [r3, #0]
 8001206:	b2d9      	uxtb	r1, r3
 8001208:	4b0f      	ldr	r3, [pc, #60]	@ (8001248 <DataReceivedHandler+0x80>)
 800120a:	2296      	movs	r2, #150	@ 0x96
 800120c:	5499      	strb	r1, [r3, r2]
				NVIC_SetPendingIRQ(VCOM0_rx_IRQn);
 800120e:	2004      	movs	r0, #4
 8001210:	f7ff f9ce 	bl	80005b0 <__NVIC_SetPendingIRQ>
				break;
 8001214:	e014      	b.n	8001240 <DataReceivedHandler+0x78>
				cdc_data[1].session.RxLength = length;
 8001216:	230e      	movs	r3, #14
 8001218:	18fb      	adds	r3, r7, r3
 800121a:	881b      	ldrh	r3, [r3, #0]
 800121c:	b2d9      	uxtb	r1, r3
 800121e:	4a0a      	ldr	r2, [pc, #40]	@ (8001248 <DataReceivedHandler+0x80>)
 8001220:	2399      	movs	r3, #153	@ 0x99
 8001222:	005b      	lsls	r3, r3, #1
 8001224:	54d1      	strb	r1, [r2, r3]
				NVIC_SetPendingIRQ(VCOM1_rx_IRQn);
 8001226:	2015      	movs	r0, #21
 8001228:	f7ff f9c2 	bl	80005b0 <__NVIC_SetPendingIRQ>
				break;
 800122c:	e008      	b.n	8001240 <DataReceivedHandler+0x78>
		usbd->hwif->EnableRx(usbd, epn);
 800122e:	687b      	ldr	r3, [r7, #4]
 8001230:	685b      	ldr	r3, [r3, #4]
 8001232:	6a9b      	ldr	r3, [r3, #40]	@ 0x28
 8001234:	1cfa      	adds	r2, r7, #3
 8001236:	7811      	ldrb	r1, [r2, #0]
 8001238:	687a      	ldr	r2, [r7, #4]
 800123a:	0010      	movs	r0, r2
 800123c:	4798      	blx	r3
}
 800123e:	e7ff      	b.n	8001240 <DataReceivedHandler+0x78>
 8001240:	46c0      	nop			@ (mov r8, r8)
 8001242:	46bd      	mov	sp, r7
 8001244:	b004      	add	sp, #16
 8001246:	bd80      	pop	{r7, pc}
 8001248:	20000004 	.word	0x20000004

0800124c <DataSentHandler>:

// called form USB hw interrupt
void DataSentHandler(const struct usbdevice_ *usbd, uint8_t epn)
{
 800124c:	b580      	push	{r7, lr}
 800124e:	b082      	sub	sp, #8
 8001250:	af00      	add	r7, sp, #0
 8001252:	6078      	str	r0, [r7, #4]
 8001254:	000a      	movs	r2, r1
 8001256:	1cfb      	adds	r3, r7, #3
 8001258:	701a      	strb	r2, [r3, #0]
	switch (epn)
 800125a:	1cfb      	adds	r3, r7, #3
 800125c:	781b      	ldrb	r3, [r3, #0]
 800125e:	2b82      	cmp	r3, #130	@ 0x82
 8001260:	d002      	beq.n	8001268 <DataSentHandler+0x1c>
 8001262:	2b84      	cmp	r3, #132	@ 0x84
 8001264:	d004      	beq.n	8001270 <DataSentHandler+0x24>
#endif	// USBD_CDC_CHANNELS > 1
#endif	// USBD_CDC_CHANNELS
	default:

	}
}
 8001266:	e007      	b.n	8001278 <DataSentHandler+0x2c>
		NVIC_EnableIRQ(VCOM0_tx_IRQn);
 8001268:	200c      	movs	r0, #12
 800126a:	f7ff f965 	bl	8000538 <__NVIC_EnableIRQ>
		break;
 800126e:	e003      	b.n	8001278 <DataSentHandler+0x2c>
		NVIC_EnableIRQ(VCOM1_tx_IRQn);
 8001270:	2016      	movs	r0, #22
 8001272:	f7ff f961 	bl	8000538 <__NVIC_EnableIRQ>
		break;
 8001276:	46c0      	nop			@ (mov r8, r8)
}
 8001278:	46c0      	nop			@ (mov r8, r8)
 800127a:	46bd      	mov	sp, r7
 800127c:	b002      	add	sp, #8
 800127e:	bd80      	pop	{r7, pc}

08001280 <USBapp_Init>:
#endif
};

// Init routine to start USB device =================================
void USBapp_Init(void)
{
 8001280:	b580      	push	{r7, lr}
 8001282:	af00      	add	r7, sp, #0
#if USBD_CDC_CHANNELS
	// Tx interrupts are enabled when the device is connected
	NVIC_SetPriority(VCOM0_tx_IRQn, USB_IRQ_PRI);
 8001284:	2102      	movs	r1, #2
 8001286:	200c      	movs	r0, #12
 8001288:	f7ff f9ae 	bl	80005e8 <__NVIC_SetPriority>
	NVIC_SetPriority(VCOM0_rx_IRQn, USB_IRQ_PRI + 1);
 800128c:	2103      	movs	r1, #3
 800128e:	2004      	movs	r0, #4
 8001290:	f7ff f9aa 	bl	80005e8 <__NVIC_SetPriority>
	NVIC_EnableIRQ(VCOM0_rx_IRQn);
 8001294:	2004      	movs	r0, #4
 8001296:	f7ff f94f 	bl	8000538 <__NVIC_EnableIRQ>
#if USBD_CDC_CHANNELS > 1
	NVIC_SetPriority(VCOM1_tx_IRQn, USB_IRQ_PRI);
 800129a:	2102      	movs	r1, #2
 800129c:	2016      	movs	r0, #22
 800129e:	f7ff f9a3 	bl	80005e8 <__NVIC_SetPriority>
	NVIC_SetPriority(VCOM1_rx_IRQn, USB_IRQ_PRI + 1);
 80012a2:	2103      	movs	r1, #3
 80012a4:	2015      	movs	r0, #21
 80012a6:	f7ff f99f 	bl	80005e8 <__NVIC_SetPriority>
	NVIC_EnableIRQ(VCOM1_rx_IRQn);
 80012aa:	2015      	movs	r0, #21
 80012ac:	f7ff f944 	bl	8000538 <__NVIC_EnableIRQ>
#if USBD_PRINTER
	NVIC_SetPriority(PRN_rx_IRQn, USB_IRQ_PRI + 1);
	NVIC_EnableIRQ(PRN_rx_IRQn);
#endif

	NVIC_SetPriority((IRQn_Type)usbdev.cfg->irqn, USB_IRQ_PRI);
 80012b0:	4b07      	ldr	r3, [pc, #28]	@ (80012d0 <USBapp_Init+0x50>)
 80012b2:	781b      	ldrb	r3, [r3, #0]
 80012b4:	b25b      	sxtb	r3, r3
 80012b6:	2102      	movs	r1, #2
 80012b8:	0018      	movs	r0, r3
 80012ba:	f7ff f995 	bl	80005e8 <__NVIC_SetPriority>
	usbdev.hwif->Init(&usbdev);
 80012be:	4b05      	ldr	r3, [pc, #20]	@ (80012d4 <USBapp_Init+0x54>)
 80012c0:	685b      	ldr	r3, [r3, #4]
 80012c2:	4a05      	ldr	r2, [pc, #20]	@ (80012d8 <USBapp_Init+0x58>)
 80012c4:	0010      	movs	r0, r2
 80012c6:	4798      	blx	r3
}
 80012c8:	46c0      	nop			@ (mov r8, r8)
 80012ca:	46bd      	mov	sp, r7
 80012cc:	bd80      	pop	{r7, pc}
 80012ce:	46c0      	nop			@ (mov r8, r8)
 80012d0:	08002d78 	.word	0x08002d78
 80012d4:	08002e0c 	.word	0x08002e0c
 80012d8:	08002c1c 	.word	0x08002c1c

080012dc <USB_DRD_FS_IRQHandler>:
	usbdev.hwif->DeInit(&usbdev);
}

// USB interrupt routine - invokes general USB interrupt handler passing device structure pointer to it
void USB_IRQHandler(void)
{
 80012dc:	b580      	push	{r7, lr}
 80012de:	af00      	add	r7, sp, #0
	usbdev.hwif->IRQHandler(&usbdev);
 80012e0:	4b03      	ldr	r3, [pc, #12]	@ (80012f0 <USB_DRD_FS_IRQHandler+0x14>)
 80012e2:	681b      	ldr	r3, [r3, #0]
 80012e4:	4a03      	ldr	r2, [pc, #12]	@ (80012f4 <USB_DRD_FS_IRQHandler+0x18>)
 80012e6:	0010      	movs	r0, r2
 80012e8:	4798      	blx	r3
}
 80012ea:	46c0      	nop			@ (mov r8, r8)
 80012ec:	46bd      	mov	sp, r7
 80012ee:	bd80      	pop	{r7, pc}
 80012f0:	08002e0c 	.word	0x08002e0c
 80012f4:	08002c1c 	.word	0x08002c1c

080012f8 <USBclass_ClearEPStall>:
    */
}

 // class-specific Clear EP Stall handler called by usb_dev.c
void USBclass_ClearEPStall(const struct usbdevice_ *usbd, uint8_t epaddr)
{
 80012f8:	b580      	push	{r7, lr}
 80012fa:	b084      	sub	sp, #16
 80012fc:	af00      	add	r7, sp, #0
 80012fe:	6078      	str	r0, [r7, #4]
 8001300:	000a      	movs	r2, r1
 8001302:	1cfb      	adds	r3, r7, #3
 8001304:	701a      	strb	r2, [r3, #0]
	uint8_t epn = epaddr & EPNUMMSK;
 8001306:	200f      	movs	r0, #15
 8001308:	183b      	adds	r3, r7, r0
 800130a:	1cfa      	adds	r2, r7, #3
 800130c:	7812      	ldrb	r2, [r2, #0]
 800130e:	2107      	movs	r1, #7
 8001310:	400a      	ands	r2, r1
 8001312:	701a      	strb	r2, [r3, #0]
	uint8_t interface = epaddr & EP_IS_IN ? usbd->cfg->inepcfg[epn].ifidx : usbd->cfg->outepcfg[epn].ifidx;
 8001314:	1cfb      	adds	r3, r7, #3
 8001316:	781b      	ldrb	r3, [r3, #0]
 8001318:	b25b      	sxtb	r3, r3
 800131a:	2b00      	cmp	r3, #0
 800131c:	da08      	bge.n	8001330 <USBclass_ClearEPStall+0x38>
 800131e:	687b      	ldr	r3, [r7, #4]
 8001320:	689b      	ldr	r3, [r3, #8]
 8001322:	689a      	ldr	r2, [r3, #8]
 8001324:	183b      	adds	r3, r7, r0
 8001326:	781b      	ldrb	r3, [r3, #0]
 8001328:	00db      	lsls	r3, r3, #3
 800132a:	18d3      	adds	r3, r2, r3
 800132c:	781b      	ldrb	r3, [r3, #0]
 800132e:	e008      	b.n	8001342 <USBclass_ClearEPStall+0x4a>
 8001330:	687b      	ldr	r3, [r7, #4]
 8001332:	689b      	ldr	r3, [r3, #8]
 8001334:	685a      	ldr	r2, [r3, #4]
 8001336:	230f      	movs	r3, #15
 8001338:	18fb      	adds	r3, r7, r3
 800133a:	781b      	ldrb	r3, [r3, #0]
 800133c:	00db      	lsls	r3, r3, #3
 800133e:	18d3      	adds	r3, r2, r3
 8001340:	781b      	ldrb	r3, [r3, #0]
 8001342:	210e      	movs	r1, #14
 8001344:	187a      	adds	r2, r7, r1
 8001346:	7013      	strb	r3, [r2, #0]
	uint8_t classid = usbd->cfg->ifassoc[interface].classid;
 8001348:	687b      	ldr	r3, [r7, #4]
 800134a:	689b      	ldr	r3, [r3, #8]
 800134c:	68da      	ldr	r2, [r3, #12]
 800134e:	187b      	adds	r3, r7, r1
 8001350:	781b      	ldrb	r3, [r3, #0]
 8001352:	18d3      	adds	r3, r2, r3
 8001354:	781b      	ldrb	r3, [r3, #0]
 8001356:	071b      	lsls	r3, r3, #28
 8001358:	0f1b      	lsrs	r3, r3, #28
 800135a:	b2da      	uxtb	r2, r3
 800135c:	230d      	movs	r3, #13
 800135e:	18fb      	adds	r3, r7, r3
 8001360:	701a      	strb	r2, [r3, #0]
	if (classid == USB_CLASS_STORAGE)
	{
	}
}
 8001362:	46c0      	nop			@ (mov r8, r8)
 8001364:	46bd      	mov	sp, r7
 8001366:	b004      	add	sp, #16
 8001368:	bd80      	pop	{r7, pc}
	...

0800136c <USBclass_HandleRequest>:

void USBclass_HandleRequest(const struct usbdevice_ *usbd)
{
 800136c:	b580      	push	{r7, lr}
 800136e:	b086      	sub	sp, #24
 8001370:	af00      	add	r7, sp, #0
 8001372:	6078      	str	r0, [r7, #4]
	USB_SetupPacket *req = &usbd->devdata->req;
 8001374:	687b      	ldr	r3, [r7, #4]
 8001376:	68db      	ldr	r3, [r3, #12]
 8001378:	3306      	adds	r3, #6
 800137a:	613b      	str	r3, [r7, #16]
	
	switch (req->bmRequestType.Recipient)
 800137c:	693b      	ldr	r3, [r7, #16]
 800137e:	781b      	ldrb	r3, [r3, #0]
 8001380:	06db      	lsls	r3, r3, #27
 8001382:	0edb      	lsrs	r3, r3, #27
 8001384:	b2db      	uxtb	r3, r3
 8001386:	2b01      	cmp	r3, #1
 8001388:	d000      	beq.n	800138c <USBclass_HandleRequest+0x20>
 800138a:	e16e      	b.n	800166a <USBclass_HandleRequest+0x2fe>
	{
	case USB_RQREC_INTERFACE:
		;
		uint8_t interface = req->wIndex.b.l;
 800138c:	2117      	movs	r1, #23
 800138e:	187b      	adds	r3, r7, r1
 8001390:	693a      	ldr	r2, [r7, #16]
 8001392:	7912      	ldrb	r2, [r2, #4]
 8001394:	701a      	strb	r2, [r3, #0]

		// handle special case of printer request with interface number in wIndex high byte
		if (req->bRequest == PRNRQ_GET_DEVICE_ID && req->wIndex.b.l == 0 && req->wIndex.b.h)
 8001396:	693b      	ldr	r3, [r7, #16]
 8001398:	785b      	ldrb	r3, [r3, #1]
 800139a:	2b00      	cmp	r3, #0
 800139c:	d10b      	bne.n	80013b6 <USBclass_HandleRequest+0x4a>
 800139e:	693b      	ldr	r3, [r7, #16]
 80013a0:	791b      	ldrb	r3, [r3, #4]
 80013a2:	2b00      	cmp	r3, #0
 80013a4:	d107      	bne.n	80013b6 <USBclass_HandleRequest+0x4a>
 80013a6:	693b      	ldr	r3, [r7, #16]
 80013a8:	795b      	ldrb	r3, [r3, #5]
 80013aa:	2b00      	cmp	r3, #0
 80013ac:	d003      	beq.n	80013b6 <USBclass_HandleRequest+0x4a>
			interface = req->wIndex.b.h;
 80013ae:	187b      	adds	r3, r7, r1
 80013b0:	693a      	ldr	r2, [r7, #16]
 80013b2:	7952      	ldrb	r2, [r2, #5]
 80013b4:	701a      	strb	r2, [r3, #0]

		if (interface < USBD_NUM_INTERFACES)
 80013b6:	2117      	movs	r1, #23
 80013b8:	187b      	adds	r3, r7, r1
 80013ba:	781b      	ldrb	r3, [r3, #0]
 80013bc:	2b04      	cmp	r3, #4
 80013be:	d900      	bls.n	80013c2 <USBclass_HandleRequest+0x56>
 80013c0:	e14d      	b.n	800165e <USBclass_HandleRequest+0x2f2>
		{
			uint8_t classid = usbd->cfg->ifassoc[interface].classid;
 80013c2:	687b      	ldr	r3, [r7, #4]
 80013c4:	689b      	ldr	r3, [r3, #8]
 80013c6:	68da      	ldr	r2, [r3, #12]
 80013c8:	187b      	adds	r3, r7, r1
 80013ca:	781b      	ldrb	r3, [r3, #0]
 80013cc:	18d3      	adds	r3, r2, r3
 80013ce:	781b      	ldrb	r3, [r3, #0]
 80013d0:	071b      	lsls	r3, r3, #28
 80013d2:	0f1b      	lsrs	r3, r3, #28
 80013d4:	b2da      	uxtb	r2, r3
 80013d6:	210f      	movs	r1, #15
 80013d8:	187b      	adds	r3, r7, r1
 80013da:	701a      	strb	r2, [r3, #0]
			switch (classid)
 80013dc:	187b      	adds	r3, r7, r1
 80013de:	781b      	ldrb	r3, [r3, #0]
 80013e0:	2b08      	cmp	r3, #8
 80013e2:	d007      	beq.n	80013f4 <USBclass_HandleRequest+0x88>
 80013e4:	dd00      	ble.n	80013e8 <USBclass_HandleRequest+0x7c>
 80013e6:	e135      	b.n	8001654 <USBclass_HandleRequest+0x2e8>
 80013e8:	2b02      	cmp	r3, #2
 80013ea:	d003      	beq.n	80013f4 <USBclass_HandleRequest+0x88>
 80013ec:	2b03      	cmp	r3, #3
 80013ee:	d100      	bne.n	80013f2 <USBclass_HandleRequest+0x86>
 80013f0:	e0c1      	b.n	8001576 <USBclass_HandleRequest+0x20a>
 80013f2:	e12f      	b.n	8001654 <USBclass_HandleRequest+0x2e8>
#endif

#if USBD_CDC_CHANNELS
			case USB_CLASS_COMMUNICATIONS:	// ACM requests are sent via control interface
				;	// get CDC function index (multiple CDC channels support)
				uint8_t funidx = usbd->cfg->ifassoc[interface].funidx;
 80013f4:	687b      	ldr	r3, [r7, #4]
 80013f6:	689b      	ldr	r3, [r3, #8]
 80013f8:	68da      	ldr	r2, [r3, #12]
 80013fa:	2317      	movs	r3, #23
 80013fc:	18fb      	adds	r3, r7, r3
 80013fe:	781b      	ldrb	r3, [r3, #0]
 8001400:	18d3      	adds	r3, r2, r3
 8001402:	781b      	ldrb	r3, [r3, #0]
 8001404:	061b      	lsls	r3, r3, #24
 8001406:	0f1b      	lsrs	r3, r3, #28
 8001408:	b2da      	uxtb	r2, r3
 800140a:	230e      	movs	r3, #14
 800140c:	18fb      	adds	r3, r7, r3
 800140e:	701a      	strb	r2, [r3, #0]
				switch (req->bRequest)
 8001410:	693b      	ldr	r3, [r7, #16]
 8001412:	785b      	ldrb	r3, [r3, #1]
 8001414:	2b23      	cmp	r3, #35	@ 0x23
 8001416:	d100      	bne.n	800141a <USBclass_HandleRequest+0xae>
 8001418:	e0a2      	b.n	8001560 <USBclass_HandleRequest+0x1f4>
 800141a:	dd00      	ble.n	800141e <USBclass_HandleRequest+0xb2>
 800141c:	e0a5      	b.n	800156a <USBclass_HandleRequest+0x1fe>
 800141e:	2b22      	cmp	r3, #34	@ 0x22
 8001420:	d100      	bne.n	8001424 <USBclass_HandleRequest+0xb8>
 8001422:	e06b      	b.n	80014fc <USBclass_HandleRequest+0x190>
 8001424:	dd00      	ble.n	8001428 <USBclass_HandleRequest+0xbc>
 8001426:	e0a0      	b.n	800156a <USBclass_HandleRequest+0x1fe>
 8001428:	2b20      	cmp	r3, #32
 800142a:	d002      	beq.n	8001432 <USBclass_HandleRequest+0xc6>
 800142c:	2b21      	cmp	r3, #33	@ 0x21
 800142e:	d04e      	beq.n	80014ce <USBclass_HandleRequest+0x162>
 8001430:	e09b      	b.n	800156a <USBclass_HandleRequest+0x1fe>
				{
				case CDCRQ_SET_LINE_CODING:        //0x20
					if (memcmp(&usbd->cdc_data[funidx].LineCoding, usbd->outep[0].ptr, MIN(req->wLength, 7)))
 8001432:	687b      	ldr	r3, [r7, #4]
 8001434:	6ada      	ldr	r2, [r3, #44]	@ 0x2c
 8001436:	230e      	movs	r3, #14
 8001438:	18fb      	adds	r3, r7, r3
 800143a:	781b      	ldrb	r3, [r3, #0]
 800143c:	219c      	movs	r1, #156	@ 0x9c
 800143e:	434b      	muls	r3, r1
 8001440:	18d3      	adds	r3, r2, r3
 8001442:	0018      	movs	r0, r3
 8001444:	687b      	ldr	r3, [r7, #4]
 8001446:	691b      	ldr	r3, [r3, #16]
 8001448:	6819      	ldr	r1, [r3, #0]
 800144a:	693b      	ldr	r3, [r7, #16]
 800144c:	88db      	ldrh	r3, [r3, #6]
 800144e:	1c1a      	adds	r2, r3, #0
 8001450:	b293      	uxth	r3, r2
 8001452:	2b07      	cmp	r3, #7
 8001454:	d901      	bls.n	800145a <USBclass_HandleRequest+0xee>
 8001456:	2307      	movs	r3, #7
 8001458:	1c1a      	adds	r2, r3, #0
 800145a:	b293      	uxth	r3, r2
 800145c:	001a      	movs	r2, r3
 800145e:	f001 fb1b 	bl	8002a98 <memcmp>
 8001462:	1e03      	subs	r3, r0, #0
 8001464:	d02e      	beq.n	80014c4 <USBclass_HandleRequest+0x158>
					{
						memcpy(&usbd->cdc_data[funidx].LineCoding, usbd->outep[0].ptr, MIN(req->wLength, 7));
 8001466:	687b      	ldr	r3, [r7, #4]
 8001468:	6ada      	ldr	r2, [r3, #44]	@ 0x2c
 800146a:	230e      	movs	r3, #14
 800146c:	18fb      	adds	r3, r7, r3
 800146e:	781b      	ldrb	r3, [r3, #0]
 8001470:	219c      	movs	r1, #156	@ 0x9c
 8001472:	434b      	muls	r3, r1
 8001474:	18d3      	adds	r3, r2, r3
 8001476:	0018      	movs	r0, r3
 8001478:	687b      	ldr	r3, [r7, #4]
 800147a:	691b      	ldr	r3, [r3, #16]
 800147c:	6819      	ldr	r1, [r3, #0]
 800147e:	693b      	ldr	r3, [r7, #16]
 8001480:	88db      	ldrh	r3, [r3, #6]
 8001482:	1c1a      	adds	r2, r3, #0
 8001484:	b293      	uxth	r3, r2
 8001486:	2b07      	cmp	r3, #7
 8001488:	d901      	bls.n	800148e <USBclass_HandleRequest+0x122>
 800148a:	2307      	movs	r3, #7
 800148c:	1c1a      	adds	r2, r3, #0
 800148e:	b293      	uxth	r3, r2
 8001490:	001a      	movs	r2, r3
 8001492:	f001 fb3b 	bl	8002b0c <memcpy>
						usbd->cdc_data[funidx].LineCodingChanged = 1;
 8001496:	687b      	ldr	r3, [r7, #4]
 8001498:	6ada      	ldr	r2, [r3, #44]	@ 0x2c
 800149a:	200e      	movs	r0, #14
 800149c:	183b      	adds	r3, r7, r0
 800149e:	781b      	ldrb	r3, [r3, #0]
 80014a0:	219c      	movs	r1, #156	@ 0x9c
 80014a2:	434b      	muls	r3, r1
 80014a4:	18d3      	adds	r3, r2, r3
 80014a6:	2201      	movs	r2, #1
 80014a8:	739a      	strb	r2, [r3, #14]
						if (usbd->cdc_service->SetLineCoding)
 80014aa:	687b      	ldr	r3, [r7, #4]
 80014ac:	6a9b      	ldr	r3, [r3, #40]	@ 0x28
 80014ae:	681b      	ldr	r3, [r3, #0]
 80014b0:	2b00      	cmp	r3, #0
 80014b2:	d007      	beq.n	80014c4 <USBclass_HandleRequest+0x158>
							usbd->cdc_service->SetLineCoding(usbd, funidx);
 80014b4:	687b      	ldr	r3, [r7, #4]
 80014b6:	6a9b      	ldr	r3, [r3, #40]	@ 0x28
 80014b8:	681b      	ldr	r3, [r3, #0]
 80014ba:	183a      	adds	r2, r7, r0
 80014bc:	7811      	ldrb	r1, [r2, #0]
 80014be:	687a      	ldr	r2, [r7, #4]
 80014c0:	0010      	movs	r0, r2
 80014c2:	4798      	blx	r3
					}
					USBdev_SendStatusOK(usbd);
 80014c4:	687b      	ldr	r3, [r7, #4]
 80014c6:	0018      	movs	r0, r3
 80014c8:	f000 f980 	bl	80017cc <USBdev_SendStatusOK>
					break;
 80014cc:	e052      	b.n	8001574 <USBclass_HandleRequest+0x208>

				case CDCRQ_GET_LINE_CODING:        //0x21
					USBdev_SendStatus(usbd, (const uint8_t *)&usbd->cdc_data[funidx].LineCoding, MIN(req->wLength, 7), 0);
 80014ce:	687b      	ldr	r3, [r7, #4]
 80014d0:	6ada      	ldr	r2, [r3, #44]	@ 0x2c
 80014d2:	230e      	movs	r3, #14
 80014d4:	18fb      	adds	r3, r7, r3
 80014d6:	781b      	ldrb	r3, [r3, #0]
 80014d8:	219c      	movs	r1, #156	@ 0x9c
 80014da:	434b      	muls	r3, r1
 80014dc:	18d3      	adds	r3, r2, r3
 80014de:	0019      	movs	r1, r3
 80014e0:	693b      	ldr	r3, [r7, #16]
 80014e2:	88db      	ldrh	r3, [r3, #6]
 80014e4:	1c1a      	adds	r2, r3, #0
 80014e6:	b293      	uxth	r3, r2
 80014e8:	2b07      	cmp	r3, #7
 80014ea:	d901      	bls.n	80014f0 <USBclass_HandleRequest+0x184>
 80014ec:	2307      	movs	r3, #7
 80014ee:	1c1a      	adds	r2, r3, #0
 80014f0:	b292      	uxth	r2, r2
 80014f2:	6878      	ldr	r0, [r7, #4]
 80014f4:	2300      	movs	r3, #0
 80014f6:	f000 f94b 	bl	8001790 <USBdev_SendStatus>
					break;
 80014fa:	e03b      	b.n	8001574 <USBclass_HandleRequest+0x208>

				case CDCRQ_SET_CONTROL_LINE_STATE:         //0x22
					if (usbd->cdc_data[funidx].ControlLineState != req->wValue.w)
 80014fc:	687b      	ldr	r3, [r7, #4]
 80014fe:	6ada      	ldr	r2, [r3, #44]	@ 0x2c
 8001500:	200e      	movs	r0, #14
 8001502:	183b      	adds	r3, r7, r0
 8001504:	781b      	ldrb	r3, [r3, #0]
 8001506:	219c      	movs	r1, #156	@ 0x9c
 8001508:	434b      	muls	r3, r1
 800150a:	18d3      	adds	r3, r2, r3
 800150c:	891a      	ldrh	r2, [r3, #8]
 800150e:	693b      	ldr	r3, [r7, #16]
 8001510:	885b      	ldrh	r3, [r3, #2]
 8001512:	429a      	cmp	r2, r3
 8001514:	d01f      	beq.n	8001556 <USBclass_HandleRequest+0x1ea>
					{
						usbd->cdc_data[funidx].ControlLineState = req->wValue.w;
 8001516:	687b      	ldr	r3, [r7, #4]
 8001518:	6ada      	ldr	r2, [r3, #44]	@ 0x2c
 800151a:	183b      	adds	r3, r7, r0
 800151c:	781b      	ldrb	r3, [r3, #0]
 800151e:	219c      	movs	r1, #156	@ 0x9c
 8001520:	434b      	muls	r3, r1
 8001522:	18d3      	adds	r3, r2, r3
 8001524:	693a      	ldr	r2, [r7, #16]
 8001526:	8852      	ldrh	r2, [r2, #2]
 8001528:	811a      	strh	r2, [r3, #8]
						usbd->cdc_data[funidx].ControlLineStateChanged = 1;
 800152a:	687b      	ldr	r3, [r7, #4]
 800152c:	6ada      	ldr	r2, [r3, #44]	@ 0x2c
 800152e:	183b      	adds	r3, r7, r0
 8001530:	781b      	ldrb	r3, [r3, #0]
 8001532:	219c      	movs	r1, #156	@ 0x9c
 8001534:	434b      	muls	r3, r1
 8001536:	18d3      	adds	r3, r2, r3
 8001538:	2201      	movs	r2, #1
 800153a:	73da      	strb	r2, [r3, #15]
						if (usbd->cdc_service->SetControlLineState)
 800153c:	687b      	ldr	r3, [r7, #4]
 800153e:	6a9b      	ldr	r3, [r3, #40]	@ 0x28
 8001540:	685b      	ldr	r3, [r3, #4]
 8001542:	2b00      	cmp	r3, #0
 8001544:	d007      	beq.n	8001556 <USBclass_HandleRequest+0x1ea>
							usbd->cdc_service->SetControlLineState(usbd, funidx);
 8001546:	687b      	ldr	r3, [r7, #4]
 8001548:	6a9b      	ldr	r3, [r3, #40]	@ 0x28
 800154a:	685b      	ldr	r3, [r3, #4]
 800154c:	183a      	adds	r2, r7, r0
 800154e:	7811      	ldrb	r1, [r2, #0]
 8001550:	687a      	ldr	r2, [r7, #4]
 8001552:	0010      	movs	r0, r2
 8001554:	4798      	blx	r3
					}
					USBdev_SendStatusOK(usbd);
 8001556:	687b      	ldr	r3, [r7, #4]
 8001558:	0018      	movs	r0, r3
 800155a:	f000 f937 	bl	80017cc <USBdev_SendStatusOK>
					break;
 800155e:	e009      	b.n	8001574 <USBclass_HandleRequest+0x208>
					
				case CDCRQ_SEND_BREAK:	// supported if bmCapabilities bit 2 set
					USBdev_SendStatusOK(usbd);
 8001560:	687b      	ldr	r3, [r7, #4]
 8001562:	0018      	movs	r0, r3
 8001564:	f000 f932 	bl	80017cc <USBdev_SendStatusOK>
					break;
 8001568:	e004      	b.n	8001574 <USBclass_HandleRequest+0x208>

				case CDCRQ_SEND_ENCAPSULATED_COMMAND:	// required by CDC120, not used by Windows VCOM
				case CDCRQ_GET_ENCAPSULATED_RESPONSE:	// required by CDC120, not used by Windows VCOM
				default:
					USBdev_CtrlError(usbd);// should stall on unhandled requests
 800156a:	687b      	ldr	r3, [r7, #4]
 800156c:	0018      	movs	r0, r3
 800156e:	f000 f93b 	bl	80017e8 <USBdev_CtrlError>
				}
				break;	// USB_CLASS_COMMUNICATIONS
 8001572:	e079      	b.n	8001668 <USBclass_HandleRequest+0x2fc>
 8001574:	e078      	b.n	8001668 <USBclass_HandleRequest+0x2fc>
#endif // USBD_CDC_CHANNELS

#if USBD_HID
			case USB_CLASS_HID:	// only single report in+out supported - enough for kb, mouse etc.
				switch (req->bRequest)
 8001576:	693b      	ldr	r3, [r7, #16]
 8001578:	785b      	ldrb	r3, [r3, #1]
 800157a:	2b0b      	cmp	r3, #11
 800157c:	d864      	bhi.n	8001648 <USBclass_HandleRequest+0x2dc>
 800157e:	009a      	lsls	r2, r3, #2
 8001580:	4b3e      	ldr	r3, [pc, #248]	@ (800167c <USBclass_HandleRequest+0x310>)
 8001582:	18d3      	adds	r3, r2, r3
 8001584:	681b      	ldr	r3, [r3, #0]
 8001586:	469f      	mov	pc, r3
				{
				case HIDRQ_GET_REPORT:
					USBdev_SendStatus(usbd,
						req->wValue.b.h == HID_REPORTTYPE_OUT // output report (report id in .l - assume 0)
 8001588:	693b      	ldr	r3, [r7, #16]
 800158a:	78db      	ldrb	r3, [r3, #3]
					USBdev_SendStatus(usbd,
 800158c:	2b02      	cmp	r3, #2
 800158e:	d104      	bne.n	800159a <USBclass_HandleRequest+0x22e>
							? (const uint8_t *)&usbd->hid_data->OutReport
 8001590:	687b      	ldr	r3, [r7, #4]
 8001592:	6b5b      	ldr	r3, [r3, #52]	@ 0x34
					USBdev_SendStatus(usbd,
 8001594:	330e      	adds	r3, #14
 8001596:	0019      	movs	r1, r3
 8001598:	e002      	b.n	80015a0 <USBclass_HandleRequest+0x234>
							: (const uint8_t *)&usbd->hid_data->InReport,
 800159a:	687b      	ldr	r3, [r7, #4]
 800159c:	6b5b      	ldr	r3, [r3, #52]	@ 0x34
					USBdev_SendStatus(usbd,
 800159e:	1d99      	adds	r1, r3, #6
 80015a0:	693b      	ldr	r3, [r7, #16]
 80015a2:	88da      	ldrh	r2, [r3, #6]
 80015a4:	6878      	ldr	r0, [r7, #4]
 80015a6:	2300      	movs	r3, #0
 80015a8:	f000 f8f2 	bl	8001790 <USBdev_SendStatus>
						req->wLength, 0);
					break;
 80015ac:	e051      	b.n	8001652 <USBclass_HandleRequest+0x2e6>

				case HIDRQ_GET_IDLE:
					USBdev_SendStatus(usbd, (const uint8_t *)&usbd->hid_data->Idle, 1, 0);
 80015ae:	687b      	ldr	r3, [r7, #4]
 80015b0:	6b5b      	ldr	r3, [r3, #52]	@ 0x34
 80015b2:	1cd9      	adds	r1, r3, #3
 80015b4:	6878      	ldr	r0, [r7, #4]
 80015b6:	2300      	movs	r3, #0
 80015b8:	2201      	movs	r2, #1
 80015ba:	f000 f8e9 	bl	8001790 <USBdev_SendStatus>
					break;
 80015be:	e048      	b.n	8001652 <USBclass_HandleRequest+0x2e6>

				case HIDRQ_GET_PROTOCOL:
					USBdev_SendStatus(usbd, (const uint8_t *)&usbd->hid_data->Protocol, 1, 0);
 80015c0:	687b      	ldr	r3, [r7, #4]
 80015c2:	6b5b      	ldr	r3, [r3, #52]	@ 0x34
 80015c4:	1d19      	adds	r1, r3, #4
 80015c6:	6878      	ldr	r0, [r7, #4]
 80015c8:	2300      	movs	r3, #0
 80015ca:	2201      	movs	r2, #1
 80015cc:	f000 f8e0 	bl	8001790 <USBdev_SendStatus>
					break;
 80015d0:	e03f      	b.n	8001652 <USBclass_HandleRequest+0x2e6>

				case HIDRQ_SET_REPORT:
					if (req->wValue.b.h == HID_REPORTTYPE_OUT)
 80015d2:	693b      	ldr	r3, [r7, #16]
 80015d4:	78db      	ldrb	r3, [r3, #3]
 80015d6:	2b02      	cmp	r3, #2
 80015d8:	d11d      	bne.n	8001616 <USBclass_HandleRequest+0x2aa>
					{
						memcpy(usbd->hid_data->OutReport, usbd->outep[0].ptr, MIN(req->wLength, HID_OUT_REPORT_SIZE));
 80015da:	687b      	ldr	r3, [r7, #4]
 80015dc:	6b5b      	ldr	r3, [r3, #52]	@ 0x34
 80015de:	330e      	adds	r3, #14
 80015e0:	0018      	movs	r0, r3
 80015e2:	687b      	ldr	r3, [r7, #4]
 80015e4:	691b      	ldr	r3, [r3, #16]
 80015e6:	6819      	ldr	r1, [r3, #0]
 80015e8:	693b      	ldr	r3, [r7, #16]
 80015ea:	88db      	ldrh	r3, [r3, #6]
 80015ec:	1c1a      	adds	r2, r3, #0
 80015ee:	b293      	uxth	r3, r2
 80015f0:	2b08      	cmp	r3, #8
 80015f2:	d901      	bls.n	80015f8 <USBclass_HandleRequest+0x28c>
 80015f4:	2308      	movs	r3, #8
 80015f6:	1c1a      	adds	r2, r3, #0
 80015f8:	b293      	uxth	r3, r2
 80015fa:	001a      	movs	r2, r3
 80015fc:	f001 fa86 	bl	8002b0c <memcpy>
						if (usbd->hid_service->UpdateOut)
 8001600:	687b      	ldr	r3, [r7, #4]
 8001602:	6b1b      	ldr	r3, [r3, #48]	@ 0x30
 8001604:	685b      	ldr	r3, [r3, #4]
 8001606:	2b00      	cmp	r3, #0
 8001608:	d005      	beq.n	8001616 <USBclass_HandleRequest+0x2aa>
							usbd->hid_service->UpdateOut(usbd);
 800160a:	687b      	ldr	r3, [r7, #4]
 800160c:	6b1b      	ldr	r3, [r3, #48]	@ 0x30
 800160e:	685b      	ldr	r3, [r3, #4]
 8001610:	687a      	ldr	r2, [r7, #4]
 8001612:	0010      	movs	r0, r2
 8001614:	4798      	blx	r3
					}
					USBdev_SendStatusOK(usbd);
 8001616:	687b      	ldr	r3, [r7, #4]
 8001618:	0018      	movs	r0, r3
 800161a:	f000 f8d7 	bl	80017cc <USBdev_SendStatusOK>
					break;
 800161e:	e018      	b.n	8001652 <USBclass_HandleRequest+0x2e6>

				case HIDRQ_SET_IDLE:
					usbd->hid_data->Idle = req->wValue.b.h;
 8001620:	687b      	ldr	r3, [r7, #4]
 8001622:	6b5b      	ldr	r3, [r3, #52]	@ 0x34
 8001624:	693a      	ldr	r2, [r7, #16]
 8001626:	78d2      	ldrb	r2, [r2, #3]
 8001628:	70da      	strb	r2, [r3, #3]
					USBdev_SendStatusOK(usbd);
 800162a:	687b      	ldr	r3, [r7, #4]
 800162c:	0018      	movs	r0, r3
 800162e:	f000 f8cd 	bl	80017cc <USBdev_SendStatusOK>
					break;
 8001632:	e00e      	b.n	8001652 <USBclass_HandleRequest+0x2e6>

				case HIDRQ_SET_PROTOCOL:
					usbd->hid_data->Protocol = req->wValue.b.l;
 8001634:	687b      	ldr	r3, [r7, #4]
 8001636:	6b5b      	ldr	r3, [r3, #52]	@ 0x34
 8001638:	693a      	ldr	r2, [r7, #16]
 800163a:	7892      	ldrb	r2, [r2, #2]
 800163c:	711a      	strb	r2, [r3, #4]
					USBdev_SendStatusOK(usbd);
 800163e:	687b      	ldr	r3, [r7, #4]
 8001640:	0018      	movs	r0, r3
 8001642:	f000 f8c3 	bl	80017cc <USBdev_SendStatusOK>
					break;
 8001646:	e004      	b.n	8001652 <USBclass_HandleRequest+0x2e6>

				default:
					USBdev_CtrlError(usbd);
 8001648:	687b      	ldr	r3, [r7, #4]
 800164a:	0018      	movs	r0, r3
 800164c:	f000 f8cc 	bl	80017e8 <USBdev_CtrlError>
				}
				break;
 8001650:	e00a      	b.n	8001668 <USBclass_HandleRequest+0x2fc>
 8001652:	e009      	b.n	8001668 <USBclass_HandleRequest+0x2fc>
					USBdev_CtrlError(usbd);
				}
				break;
#endif
			default:
				USBdev_CtrlError(usbd);
 8001654:	687b      	ldr	r3, [r7, #4]
 8001656:	0018      	movs	r0, r3
 8001658:	f000 f8c6 	bl	80017e8 <USBdev_CtrlError>
			}
		}
		else
			USBdev_CtrlError(usbd);
		break;	//USB_RQREC_INTERFACE
 800165c:	e00a      	b.n	8001674 <USBclass_HandleRequest+0x308>
			USBdev_CtrlError(usbd);
 800165e:	687b      	ldr	r3, [r7, #4]
 8001660:	0018      	movs	r0, r3
 8001662:	f000 f8c1 	bl	80017e8 <USBdev_CtrlError>
		break;	//USB_RQREC_INTERFACE
 8001666:	e005      	b.n	8001674 <USBclass_HandleRequest+0x308>
 8001668:	e004      	b.n	8001674 <USBclass_HandleRequest+0x308>
	default:
		USBdev_CtrlError(usbd);
 800166a:	687b      	ldr	r3, [r7, #4]
 800166c:	0018      	movs	r0, r3
 800166e:	f000 f8bb 	bl	80017e8 <USBdev_CtrlError>
	}
}
 8001672:	46c0      	nop			@ (mov r8, r8)
 8001674:	46c0      	nop			@ (mov r8, r8)
 8001676:	46bd      	mov	sp, r7
 8001678:	b006      	add	sp, #24
 800167a:	bd80      	pop	{r7, pc}
 800167c:	08002dac 	.word	0x08002dac

08001680 <getusb16>:
typedef struct usb16_ {
	uint8_t lo, hi;
} usb16;

static inline uint16_t getusb16(const struct usb16_ *p)
{
 8001680:	b580      	push	{r7, lr}
 8001682:	b082      	sub	sp, #8
 8001684:	af00      	add	r7, sp, #0
 8001686:	6078      	str	r0, [r7, #4]
	return p->lo | p->hi << 8;
 8001688:	687b      	ldr	r3, [r7, #4]
 800168a:	781b      	ldrb	r3, [r3, #0]
 800168c:	b21a      	sxth	r2, r3
 800168e:	687b      	ldr	r3, [r7, #4]
 8001690:	785b      	ldrb	r3, [r3, #1]
 8001692:	021b      	lsls	r3, r3, #8
 8001694:	b21b      	sxth	r3, r3
 8001696:	4313      	orrs	r3, r2
 8001698:	b21b      	sxth	r3, r3
 800169a:	b29b      	uxth	r3, r3
}
 800169c:	0018      	movs	r0, r3
 800169e:	46bd      	mov	sp, r7
 80016a0:	b002      	add	sp, #8
 80016a2:	bd80      	pop	{r7, pc}

080016a4 <USBdev_SendData>:
	if (epn < usbd->cfg->numeppairs)
		usbd->outep[epn].ptr = buf;
}

bool USBdev_SendData(const struct usbdevice_ *usbd, uint8_t epn, const uint8_t *data, uint16_t length, bool autozlp)
{
 80016a4:	b590      	push	{r4, r7, lr}
 80016a6:	b087      	sub	sp, #28
 80016a8:	af00      	add	r7, sp, #0
 80016aa:	60f8      	str	r0, [r7, #12]
 80016ac:	0008      	movs	r0, r1
 80016ae:	607a      	str	r2, [r7, #4]
 80016b0:	0019      	movs	r1, r3
 80016b2:	240b      	movs	r4, #11
 80016b4:	193b      	adds	r3, r7, r4
 80016b6:	1c02      	adds	r2, r0, #0
 80016b8:	701a      	strb	r2, [r3, #0]
 80016ba:	2308      	movs	r3, #8
 80016bc:	18fb      	adds	r3, r7, r3
 80016be:	1c0a      	adds	r2, r1, #0
 80016c0:	801a      	strh	r2, [r3, #0]
	epn &= EPNUMMSK;
 80016c2:	0020      	movs	r0, r4
 80016c4:	183b      	adds	r3, r7, r0
 80016c6:	183a      	adds	r2, r7, r0
 80016c8:	7812      	ldrb	r2, [r2, #0]
 80016ca:	2107      	movs	r1, #7
 80016cc:	400a      	ands	r2, r1
 80016ce:	701a      	strb	r2, [r3, #0]
	struct epdata_ *epd = &usbd->inep[epn];
 80016d0:	68fb      	ldr	r3, [r7, #12]
 80016d2:	695a      	ldr	r2, [r3, #20]
 80016d4:	0001      	movs	r1, r0
 80016d6:	187b      	adds	r3, r7, r1
 80016d8:	781b      	ldrb	r3, [r3, #0]
 80016da:	00db      	lsls	r3, r3, #3
 80016dc:	18d3      	adds	r3, r2, r3
 80016de:	617b      	str	r3, [r7, #20]
	if (epd->busy || (epn && usbd->devdata->devstate != USBD_STATE_CONFIGURED))
 80016e0:	697b      	ldr	r3, [r7, #20]
 80016e2:	79db      	ldrb	r3, [r3, #7]
 80016e4:	2b00      	cmp	r3, #0
 80016e6:	d108      	bne.n	80016fa <USBdev_SendData+0x56>
 80016e8:	187b      	adds	r3, r7, r1
 80016ea:	781b      	ldrb	r3, [r3, #0]
 80016ec:	2b00      	cmp	r3, #0
 80016ee:	d006      	beq.n	80016fe <USBdev_SendData+0x5a>
 80016f0:	68fb      	ldr	r3, [r7, #12]
 80016f2:	68db      	ldr	r3, [r3, #12]
 80016f4:	781b      	ldrb	r3, [r3, #0]
 80016f6:	2b02      	cmp	r3, #2
 80016f8:	d001      	beq.n	80016fe <USBdev_SendData+0x5a>
		return 1;
 80016fa:	2301      	movs	r3, #1
 80016fc:	e044      	b.n	8001788 <USBdev_SendData+0xe4>

	if (!data)
 80016fe:	687b      	ldr	r3, [r7, #4]
 8001700:	2b00      	cmp	r3, #0
 8001702:	d103      	bne.n	800170c <USBdev_SendData+0x68>
		length = 0;	// send ZLP if nullptr passed
 8001704:	2308      	movs	r3, #8
 8001706:	18fb      	adds	r3, r7, r3
 8001708:	2200      	movs	r2, #0
 800170a:	801a      	strh	r2, [r3, #0]
	epd->busy = 1;
 800170c:	697b      	ldr	r3, [r7, #20]
 800170e:	2201      	movs	r2, #1
 8001710:	71da      	strb	r2, [r3, #7]
	epd->count = length;
 8001712:	697b      	ldr	r3, [r7, #20]
 8001714:	2408      	movs	r4, #8
 8001716:	193a      	adds	r2, r7, r4
 8001718:	8812      	ldrh	r2, [r2, #0]
 800171a:	809a      	strh	r2, [r3, #4]
	epd->ptr = (uint8_t *)data;
 800171c:	697b      	ldr	r3, [r7, #20]
 800171e:	687a      	ldr	r2, [r7, #4]
 8001720:	601a      	str	r2, [r3, #0]
	epd->sendzlp = autozlp && length && length % usbd->hwif->GetInEPSize(usbd, epn) == 0;
 8001722:	2320      	movs	r3, #32
 8001724:	2208      	movs	r2, #8
 8001726:	189b      	adds	r3, r3, r2
 8001728:	19db      	adds	r3, r3, r7
 800172a:	781b      	ldrb	r3, [r3, #0]
 800172c:	2b00      	cmp	r3, #0
 800172e:	d01a      	beq.n	8001766 <USBdev_SendData+0xc2>
 8001730:	193b      	adds	r3, r7, r4
 8001732:	881b      	ldrh	r3, [r3, #0]
 8001734:	2b00      	cmp	r3, #0
 8001736:	d016      	beq.n	8001766 <USBdev_SendData+0xc2>
 8001738:	68fb      	ldr	r3, [r7, #12]
 800173a:	685b      	ldr	r3, [r3, #4]
 800173c:	68db      	ldr	r3, [r3, #12]
 800173e:	220b      	movs	r2, #11
 8001740:	18ba      	adds	r2, r7, r2
 8001742:	7811      	ldrb	r1, [r2, #0]
 8001744:	68fa      	ldr	r2, [r7, #12]
 8001746:	0010      	movs	r0, r2
 8001748:	4798      	blx	r3
 800174a:	0003      	movs	r3, r0
 800174c:	001a      	movs	r2, r3
 800174e:	193b      	adds	r3, r7, r4
 8001750:	881b      	ldrh	r3, [r3, #0]
 8001752:	0011      	movs	r1, r2
 8001754:	0018      	movs	r0, r3
 8001756:	f7fe fd65 	bl	8000224 <__aeabi_uidivmod>
 800175a:	000b      	movs	r3, r1
 800175c:	b29b      	uxth	r3, r3
 800175e:	2b00      	cmp	r3, #0
 8001760:	d101      	bne.n	8001766 <USBdev_SendData+0xc2>
 8001762:	2301      	movs	r3, #1
 8001764:	e000      	b.n	8001768 <USBdev_SendData+0xc4>
 8001766:	2300      	movs	r3, #0
 8001768:	1c1a      	adds	r2, r3, #0
 800176a:	2301      	movs	r3, #1
 800176c:	4013      	ands	r3, r2
 800176e:	b2da      	uxtb	r2, r3
 8001770:	697b      	ldr	r3, [r7, #20]
 8001772:	719a      	strb	r2, [r3, #6]
	usbd->hwif->StartTx(usbd, epn);
 8001774:	68fb      	ldr	r3, [r7, #12]
 8001776:	685b      	ldr	r3, [r3, #4]
 8001778:	6adb      	ldr	r3, [r3, #44]	@ 0x2c
 800177a:	220b      	movs	r2, #11
 800177c:	18ba      	adds	r2, r7, r2
 800177e:	7811      	ldrb	r1, [r2, #0]
 8001780:	68fa      	ldr	r2, [r7, #12]
 8001782:	0010      	movs	r0, r2
 8001784:	4798      	blx	r3
	return 0;
 8001786:	2300      	movs	r3, #0
}
 8001788:	0018      	movs	r0, r3
 800178a:	46bd      	mov	sp, r7
 800178c:	b007      	add	sp, #28
 800178e:	bd90      	pop	{r4, r7, pc}

08001790 <USBdev_SendStatus>:

void USBdev_SendStatus(const struct usbdevice_ *usbd, const uint8_t *data, uint16_t length, bool zlp)
{
 8001790:	b580      	push	{r7, lr}
 8001792:	b086      	sub	sp, #24
 8001794:	af02      	add	r7, sp, #8
 8001796:	60f8      	str	r0, [r7, #12]
 8001798:	60b9      	str	r1, [r7, #8]
 800179a:	0019      	movs	r1, r3
 800179c:	1dbb      	adds	r3, r7, #6
 800179e:	801a      	strh	r2, [r3, #0]
 80017a0:	1d7b      	adds	r3, r7, #5
 80017a2:	1c0a      	adds	r2, r1, #0
 80017a4:	701a      	strb	r2, [r3, #0]
	usbd->devdata->ep0state = USBD_EP0_STATUS_IN;
 80017a6:	68fb      	ldr	r3, [r7, #12]
 80017a8:	68db      	ldr	r3, [r3, #12]
 80017aa:	2204      	movs	r2, #4
 80017ac:	70da      	strb	r2, [r3, #3]
	USBdev_SendData(usbd, 0, data, length, zlp);
 80017ae:	1dbb      	adds	r3, r7, #6
 80017b0:	8819      	ldrh	r1, [r3, #0]
 80017b2:	68ba      	ldr	r2, [r7, #8]
 80017b4:	68f8      	ldr	r0, [r7, #12]
 80017b6:	1d7b      	adds	r3, r7, #5
 80017b8:	781b      	ldrb	r3, [r3, #0]
 80017ba:	9300      	str	r3, [sp, #0]
 80017bc:	000b      	movs	r3, r1
 80017be:	2100      	movs	r1, #0
 80017c0:	f7ff ff70 	bl	80016a4 <USBdev_SendData>
	USBlog_storeresp(RSP_STATUS, length);
}
 80017c4:	46c0      	nop			@ (mov r8, r8)
 80017c6:	46bd      	mov	sp, r7
 80017c8:	b004      	add	sp, #16
 80017ca:	bd80      	pop	{r7, pc}

080017cc <USBdev_SendStatusOK>:

void USBdev_SendStatusOK(const struct usbdevice_ *usbd)
{
 80017cc:	b580      	push	{r7, lr}
 80017ce:	b082      	sub	sp, #8
 80017d0:	af00      	add	r7, sp, #0
 80017d2:	6078      	str	r0, [r7, #4]
	USBdev_SendStatus(usbd, 0, 0, 0);
 80017d4:	6878      	ldr	r0, [r7, #4]
 80017d6:	2300      	movs	r3, #0
 80017d8:	2200      	movs	r2, #0
 80017da:	2100      	movs	r1, #0
 80017dc:	f7ff ffd8 	bl	8001790 <USBdev_SendStatus>
}
 80017e0:	46c0      	nop			@ (mov r8, r8)
 80017e2:	46bd      	mov	sp, r7
 80017e4:	b002      	add	sp, #8
 80017e6:	bd80      	pop	{r7, pc}

080017e8 <USBdev_CtrlError>:

void USBdev_CtrlError(const struct usbdevice_ *usbd)
{
 80017e8:	b580      	push	{r7, lr}
 80017ea:	b082      	sub	sp, #8
 80017ec:	af00      	add	r7, sp, #0
 80017ee:	6078      	str	r0, [r7, #4]
	// stall both control endpoints
	usbd->devdata->ep0state = USBD_EP0_STALL;
 80017f0:	687b      	ldr	r3, [r7, #4]
 80017f2:	68db      	ldr	r3, [r3, #12]
 80017f4:	2206      	movs	r2, #6
 80017f6:	70da      	strb	r2, [r3, #3]
	usbd->hwif->SetEPStall(usbd, EP_IS_IN | 0);
 80017f8:	687b      	ldr	r3, [r7, #4]
 80017fa:	685b      	ldr	r3, [r3, #4]
 80017fc:	699b      	ldr	r3, [r3, #24]
 80017fe:	687a      	ldr	r2, [r7, #4]
 8001800:	2180      	movs	r1, #128	@ 0x80
 8001802:	0010      	movs	r0, r2
 8001804:	4798      	blx	r3
	usbd->hwif->SetEPStall(usbd, 0);
 8001806:	687b      	ldr	r3, [r7, #4]
 8001808:	685b      	ldr	r3, [r3, #4]
 800180a:	699b      	ldr	r3, [r3, #24]
 800180c:	687a      	ldr	r2, [r7, #4]
 800180e:	2100      	movs	r1, #0
 8001810:	0010      	movs	r0, r2
 8001812:	4798      	blx	r3
	USBlog_storeresp(RSP_ERR, 0);
}
 8001814:	46c0      	nop			@ (mov r8, r8)
 8001816:	46bd      	mov	sp, r7
 8001818:	b002      	add	sp, #8
 800181a:	bd80      	pop	{r7, pc}

0800181c <USBdev_GetDescriptor>:

static void USBdev_GetDescriptor(const struct usbdevice_ *usbd)
{
 800181c:	b590      	push	{r4, r7, lr}
 800181e:	b087      	sub	sp, #28
 8001820:	af00      	add	r7, sp, #0
 8001822:	6078      	str	r0, [r7, #4]
	const uint8_t *ptr = 0;
 8001824:	2300      	movs	r3, #0
 8001826:	617b      	str	r3, [r7, #20]
	uint16_t size = 0;
 8001828:	2312      	movs	r3, #18
 800182a:	18fb      	adds	r3, r7, r3
 800182c:	2200      	movs	r2, #0
 800182e:	801a      	strh	r2, [r3, #0]
	USB_SetupPacket *req = &usbd->devdata->req;
 8001830:	687b      	ldr	r3, [r7, #4]
 8001832:	68db      	ldr	r3, [r3, #12]
 8001834:	3306      	adds	r3, #6
 8001836:	60fb      	str	r3, [r7, #12]
	
	switch (req->wValue.b.h)
 8001838:	68fb      	ldr	r3, [r7, #12]
 800183a:	78db      	ldrb	r3, [r3, #3]
 800183c:	2b22      	cmp	r3, #34	@ 0x22
 800183e:	d04e      	beq.n	80018de <USBdev_GetDescriptor+0xc2>
 8001840:	dd00      	ble.n	8001844 <USBdev_GetDescriptor+0x28>
 8001842:	e06c      	b.n	800191e <USBdev_GetDescriptor+0x102>
 8001844:	2b03      	cmp	r3, #3
 8001846:	d039      	beq.n	80018bc <USBdev_GetDescriptor+0xa0>
 8001848:	dd00      	ble.n	800184c <USBdev_GetDescriptor+0x30>
 800184a:	e068      	b.n	800191e <USBdev_GetDescriptor+0x102>
 800184c:	2b01      	cmp	r3, #1
 800184e:	d002      	beq.n	8001856 <USBdev_GetDescriptor+0x3a>
 8001850:	2b02      	cmp	r3, #2
 8001852:	d020      	beq.n	8001896 <USBdev_GetDescriptor+0x7a>
		}
		break;
#endif

	default:
		break;
 8001854:	e063      	b.n	800191e <USBdev_GetDescriptor+0x102>
		ptr = (const uint8_t *)usbd->cfg->devdesc;
 8001856:	687b      	ldr	r3, [r7, #4]
 8001858:	689b      	ldr	r3, [r3, #8]
 800185a:	691b      	ldr	r3, [r3, #16]
 800185c:	617b      	str	r3, [r7, #20]
		if (req->wLength > *ptr)
 800185e:	68fb      	ldr	r3, [r7, #12]
 8001860:	88db      	ldrh	r3, [r3, #6]
 8001862:	697a      	ldr	r2, [r7, #20]
 8001864:	7812      	ldrb	r2, [r2, #0]
 8001866:	4293      	cmp	r3, r2
 8001868:	d95b      	bls.n	8001922 <USBdev_GetDescriptor+0x106>
			size = MIN(*ptr, usbd->cfg->devdesc->bMaxPacketSize0);
 800186a:	687b      	ldr	r3, [r7, #4]
 800186c:	689b      	ldr	r3, [r3, #8]
 800186e:	691b      	ldr	r3, [r3, #16]
 8001870:	79da      	ldrb	r2, [r3, #7]
 8001872:	697b      	ldr	r3, [r7, #20]
 8001874:	781b      	ldrb	r3, [r3, #0]
 8001876:	1c18      	adds	r0, r3, #0
 8001878:	1c11      	adds	r1, r2, #0
 800187a:	b2ca      	uxtb	r2, r1
 800187c:	b2c3      	uxtb	r3, r0
 800187e:	429a      	cmp	r2, r3
 8001880:	d900      	bls.n	8001884 <USBdev_GetDescriptor+0x68>
 8001882:	1c01      	adds	r1, r0, #0
 8001884:	b2ca      	uxtb	r2, r1
 8001886:	2112      	movs	r1, #18
 8001888:	187b      	adds	r3, r7, r1
 800188a:	801a      	strh	r2, [r3, #0]
			req->wLength = size;	// adjust to suppress automatic ZLP
 800188c:	68fb      	ldr	r3, [r7, #12]
 800188e:	187a      	adds	r2, r7, r1
 8001890:	8812      	ldrh	r2, [r2, #0]
 8001892:	80da      	strh	r2, [r3, #6]
		break;
 8001894:	e045      	b.n	8001922 <USBdev_GetDescriptor+0x106>
		ptr = (const uint8_t *)usbd->cfg->cfgdesc;
 8001896:	687b      	ldr	r3, [r7, #4]
 8001898:	689b      	ldr	r3, [r3, #8]
 800189a:	695b      	ldr	r3, [r3, #20]
 800189c:	617b      	str	r3, [r7, #20]
		size = ptr[2] | ptr[3] << 8;
 800189e:	697b      	ldr	r3, [r7, #20]
 80018a0:	3302      	adds	r3, #2
 80018a2:	781b      	ldrb	r3, [r3, #0]
 80018a4:	b21a      	sxth	r2, r3
 80018a6:	697b      	ldr	r3, [r7, #20]
 80018a8:	3303      	adds	r3, #3
 80018aa:	781b      	ldrb	r3, [r3, #0]
 80018ac:	021b      	lsls	r3, r3, #8
 80018ae:	b21b      	sxth	r3, r3
 80018b0:	4313      	orrs	r3, r2
 80018b2:	b21a      	sxth	r2, r3
 80018b4:	2312      	movs	r3, #18
 80018b6:	18fb      	adds	r3, r7, r3
 80018b8:	801a      	strh	r2, [r3, #0]
		break;
 80018ba:	e037      	b.n	800192c <USBdev_GetDescriptor+0x110>
		if (req->wValue.b.l < usbd->cfg->nstringdesc)
 80018bc:	68fb      	ldr	r3, [r7, #12]
 80018be:	789a      	ldrb	r2, [r3, #2]
 80018c0:	687b      	ldr	r3, [r7, #4]
 80018c2:	689b      	ldr	r3, [r3, #8]
 80018c4:	78db      	ldrb	r3, [r3, #3]
 80018c6:	429a      	cmp	r2, r3
 80018c8:	d22d      	bcs.n	8001926 <USBdev_GetDescriptor+0x10a>
			ptr = usbd->cfg->strdesc[req->wValue.b.l];
 80018ca:	687b      	ldr	r3, [r7, #4]
 80018cc:	689b      	ldr	r3, [r3, #8]
 80018ce:	699a      	ldr	r2, [r3, #24]
 80018d0:	68fb      	ldr	r3, [r7, #12]
 80018d2:	789b      	ldrb	r3, [r3, #2]
 80018d4:	009b      	lsls	r3, r3, #2
 80018d6:	18d3      	adds	r3, r2, r3
 80018d8:	681b      	ldr	r3, [r3, #0]
 80018da:	617b      	str	r3, [r7, #20]
		break;
 80018dc:	e023      	b.n	8001926 <USBdev_GetDescriptor+0x10a>
		if (req->bmRequestType.Recipient == USB_RQREC_INTERFACE
 80018de:	68fb      	ldr	r3, [r7, #12]
 80018e0:	781b      	ldrb	r3, [r3, #0]
 80018e2:	221f      	movs	r2, #31
 80018e4:	4013      	ands	r3, r2
 80018e6:	b2db      	uxtb	r3, r3
 80018e8:	2b01      	cmp	r3, #1
 80018ea:	d11e      	bne.n	800192a <USBdev_GetDescriptor+0x10e>
				&& req->wIndex.w == IFNUM_HID)
 80018ec:	68fb      	ldr	r3, [r7, #12]
 80018ee:	889b      	ldrh	r3, [r3, #4]
 80018f0:	2b04      	cmp	r3, #4
 80018f2:	d11a      	bne.n	800192a <USBdev_GetDescriptor+0x10e>
			ptr = usbd->cfg->hidrepdesc;
 80018f4:	687b      	ldr	r3, [r7, #4]
 80018f6:	689b      	ldr	r3, [r3, #8]
 80018f8:	6a1b      	ldr	r3, [r3, #32]
 80018fa:	617b      	str	r3, [r7, #20]
			size = MIN(req->wLength, usbd->cfg->hidrepdescsize);
 80018fc:	687b      	ldr	r3, [r7, #4]
 80018fe:	689b      	ldr	r3, [r3, #8]
 8001900:	7f1b      	ldrb	r3, [r3, #28]
 8001902:	0019      	movs	r1, r3
 8001904:	68fb      	ldr	r3, [r7, #12]
 8001906:	88db      	ldrh	r3, [r3, #6]
 8001908:	2212      	movs	r2, #18
 800190a:	18ba      	adds	r2, r7, r2
 800190c:	1c1c      	adds	r4, r3, #0
 800190e:	1c0b      	adds	r3, r1, #0
 8001910:	b298      	uxth	r0, r3
 8001912:	b2a1      	uxth	r1, r4
 8001914:	4288      	cmp	r0, r1
 8001916:	d900      	bls.n	800191a <USBdev_GetDescriptor+0xfe>
 8001918:	1c23      	adds	r3, r4, #0
 800191a:	8013      	strh	r3, [r2, #0]
		break;
 800191c:	e005      	b.n	800192a <USBdev_GetDescriptor+0x10e>
		break;
 800191e:	46c0      	nop			@ (mov r8, r8)
 8001920:	e004      	b.n	800192c <USBdev_GetDescriptor+0x110>
		break;
 8001922:	46c0      	nop			@ (mov r8, r8)
 8001924:	e002      	b.n	800192c <USBdev_GetDescriptor+0x110>
		break;
 8001926:	46c0      	nop			@ (mov r8, r8)
 8001928:	e000      	b.n	800192c <USBdev_GetDescriptor+0x110>
		break;
 800192a:	46c0      	nop			@ (mov r8, r8)
	}
	if (ptr)
 800192c:	697b      	ldr	r3, [r7, #20]
 800192e:	2b00      	cmp	r3, #0
 8001930:	d023      	beq.n	800197a <USBdev_GetDescriptor+0x15e>
	{
		if (size == 0)
 8001932:	2112      	movs	r1, #18
 8001934:	187b      	adds	r3, r7, r1
 8001936:	881b      	ldrh	r3, [r3, #0]
 8001938:	2b00      	cmp	r3, #0
 800193a:	d103      	bne.n	8001944 <USBdev_GetDescriptor+0x128>
			size = *ptr;
 800193c:	697b      	ldr	r3, [r7, #20]
 800193e:	781a      	ldrb	r2, [r3, #0]
 8001940:	187b      	adds	r3, r7, r1
 8001942:	801a      	strh	r2, [r3, #0]
		USBdev_SendStatus(usbd, ptr, MIN(size, req->wLength), size < req->wLength);
 8001944:	68fb      	ldr	r3, [r7, #12]
 8001946:	88da      	ldrh	r2, [r3, #6]
 8001948:	2312      	movs	r3, #18
 800194a:	18fb      	adds	r3, r7, r3
 800194c:	1c10      	adds	r0, r2, #0
 800194e:	881b      	ldrh	r3, [r3, #0]
 8001950:	b299      	uxth	r1, r3
 8001952:	b282      	uxth	r2, r0
 8001954:	4291      	cmp	r1, r2
 8001956:	d900      	bls.n	800195a <USBdev_GetDescriptor+0x13e>
 8001958:	1c03      	adds	r3, r0, #0
 800195a:	b29c      	uxth	r4, r3
 800195c:	68fb      	ldr	r3, [r7, #12]
 800195e:	88db      	ldrh	r3, [r3, #6]
 8001960:	2212      	movs	r2, #18
 8001962:	18ba      	adds	r2, r7, r2
 8001964:	8812      	ldrh	r2, [r2, #0]
 8001966:	429a      	cmp	r2, r3
 8001968:	419b      	sbcs	r3, r3
 800196a:	425b      	negs	r3, r3
 800196c:	b2db      	uxtb	r3, r3
 800196e:	6979      	ldr	r1, [r7, #20]
 8001970:	6878      	ldr	r0, [r7, #4]
 8001972:	0022      	movs	r2, r4
 8001974:	f7ff ff0c 	bl	8001790 <USBdev_SendStatus>
	}
	else
		USBdev_CtrlError(usbd);
}
 8001978:	e003      	b.n	8001982 <USBdev_GetDescriptor+0x166>
		USBdev_CtrlError(usbd);
 800197a:	687b      	ldr	r3, [r7, #4]
 800197c:	0018      	movs	r0, r3
 800197e:	f7ff ff33 	bl	80017e8 <USBdev_CtrlError>
}
 8001982:	46c0      	nop			@ (mov r8, r8)
 8001984:	46bd      	mov	sp, r7
 8001986:	b007      	add	sp, #28
 8001988:	bd90      	pop	{r4, r7, pc}
	...

0800198c <USBdev_HandleRequest>:

// Moved to usb_class.c 
void USBclass_HandleRequest(const struct usbdevice_ *usbd);

static void USBdev_HandleRequest(const struct usbdevice_ *usbd)
{
 800198c:	b590      	push	{r4, r7, lr}
 800198e:	b087      	sub	sp, #28
 8001990:	af00      	add	r7, sp, #0
 8001992:	6078      	str	r0, [r7, #4]
	USB_SetupPacket *req = &usbd->devdata->req;
 8001994:	687b      	ldr	r3, [r7, #4]
 8001996:	68db      	ldr	r3, [r3, #12]
 8001998:	3306      	adds	r3, #6
 800199a:	617b      	str	r3, [r7, #20]
	
	switch (req->bmRequestType.Type)
 800199c:	697b      	ldr	r3, [r7, #20]
 800199e:	781b      	ldrb	r3, [r3, #0]
 80019a0:	065b      	lsls	r3, r3, #25
 80019a2:	0f9b      	lsrs	r3, r3, #30
 80019a4:	b2db      	uxtb	r3, r3
 80019a6:	2b00      	cmp	r3, #0
 80019a8:	d003      	beq.n	80019b2 <USBdev_HandleRequest+0x26>
 80019aa:	2b01      	cmp	r3, #1
 80019ac:	d100      	bne.n	80019b0 <USBdev_HandleRequest+0x24>
 80019ae:	e0f2      	b.n	8001b96 <USBdev_HandleRequest+0x20a>
 80019b0:	e0f6      	b.n	8001ba0 <USBdev_HandleRequest+0x214>
	{
	case USB_RQTYPE_STANDARD:
		switch (req->bRequest)
 80019b2:	697b      	ldr	r3, [r7, #20]
 80019b4:	785b      	ldrb	r3, [r3, #1]
 80019b6:	2b09      	cmp	r3, #9
 80019b8:	d900      	bls.n	80019bc <USBdev_HandleRequest+0x30>
 80019ba:	e0e6      	b.n	8001b8a <USBdev_HandleRequest+0x1fe>
 80019bc:	009a      	lsls	r2, r3, #2
 80019be:	4b7d      	ldr	r3, [pc, #500]	@ (8001bb4 <USBdev_HandleRequest+0x228>)
 80019c0:	18d3      	adds	r3, r2, r3
 80019c2:	681b      	ldr	r3, [r3, #0]
 80019c4:	469f      	mov	pc, r3
		{
		case USB_STDRQ_SET_ADDRESS:
			usbd->devdata->setaddress = req->wValue.b.l;
 80019c6:	687b      	ldr	r3, [r7, #4]
 80019c8:	68db      	ldr	r3, [r3, #12]
 80019ca:	697a      	ldr	r2, [r7, #20]
 80019cc:	7892      	ldrb	r2, [r2, #2]
 80019ce:	709a      	strb	r2, [r3, #2]
			USBdev_SendStatusOK(usbd);
 80019d0:	687b      	ldr	r3, [r7, #4]
 80019d2:	0018      	movs	r0, r3
 80019d4:	f7ff fefa 	bl	80017cc <USBdev_SendStatusOK>
			break;
 80019d8:	e0dc      	b.n	8001b94 <USBdev_HandleRequest+0x208>

		case USB_STDRQ_GET_DESCRIPTOR:
			USBdev_GetDescriptor(usbd);
 80019da:	687b      	ldr	r3, [r7, #4]
 80019dc:	0018      	movs	r0, r3
 80019de:	f7ff ff1d 	bl	800181c <USBdev_GetDescriptor>
			break;
 80019e2:	e0d7      	b.n	8001b94 <USBdev_HandleRequest+0x208>

		case USB_STDRQ_GET_STATUS:
			switch (req->bmRequestType.Recipient)
 80019e4:	697b      	ldr	r3, [r7, #20]
 80019e6:	781b      	ldrb	r3, [r3, #0]
 80019e8:	06db      	lsls	r3, r3, #27
 80019ea:	0edb      	lsrs	r3, r3, #27
 80019ec:	b2db      	uxtb	r3, r3
 80019ee:	2b02      	cmp	r3, #2
 80019f0:	d015      	beq.n	8001a1e <USBdev_HandleRequest+0x92>
 80019f2:	dc27      	bgt.n	8001a44 <USBdev_HandleRequest+0xb8>
 80019f4:	2b00      	cmp	r3, #0
 80019f6:	d002      	beq.n	80019fe <USBdev_HandleRequest+0x72>
 80019f8:	2b01      	cmp	r3, #1
 80019fa:	d009      	beq.n	8001a10 <USBdev_HandleRequest+0x84>
 80019fc:	e022      	b.n	8001a44 <USBdev_HandleRequest+0xb8>
			{
				static const uint8_t zero[2];
				static uint16_t epstatus;
			case USB_RQREC_DEVICE:	// TODO: should return RWKUP and self-powered status
				USBdev_SendStatus(usbd, (const uint8_t *)&usbd->devdata->status, 2, 0);
 80019fe:	687b      	ldr	r3, [r7, #4]
 8001a00:	68db      	ldr	r3, [r3, #12]
 8001a02:	1d19      	adds	r1, r3, #4
 8001a04:	6878      	ldr	r0, [r7, #4]
 8001a06:	2300      	movs	r3, #0
 8001a08:	2202      	movs	r2, #2
 8001a0a:	f7ff fec1 	bl	8001790 <USBdev_SendStatus>
				break;
 8001a0e:	e01e      	b.n	8001a4e <USBdev_HandleRequest+0xc2>
			case USB_RQREC_INTERFACE:
				USBdev_SendStatus(usbd, zero, 2, 0);
 8001a10:	4969      	ldr	r1, [pc, #420]	@ (8001bb8 <USBdev_HandleRequest+0x22c>)
 8001a12:	6878      	ldr	r0, [r7, #4]
 8001a14:	2300      	movs	r3, #0
 8001a16:	2202      	movs	r2, #2
 8001a18:	f7ff feba 	bl	8001790 <USBdev_SendStatus>
				break;
 8001a1c:	e017      	b.n	8001a4e <USBdev_HandleRequest+0xc2>
			case USB_RQREC_ENDPOINT:
				epstatus = usbd->hwif->IsEPStalled(usbd, req->wIndex.b.l);
 8001a1e:	687b      	ldr	r3, [r7, #4]
 8001a20:	685b      	ldr	r3, [r3, #4]
 8001a22:	6a1b      	ldr	r3, [r3, #32]
 8001a24:	697a      	ldr	r2, [r7, #20]
 8001a26:	7911      	ldrb	r1, [r2, #4]
 8001a28:	687a      	ldr	r2, [r7, #4]
 8001a2a:	0010      	movs	r0, r2
 8001a2c:	4798      	blx	r3
 8001a2e:	0003      	movs	r3, r0
 8001a30:	001a      	movs	r2, r3
 8001a32:	4b62      	ldr	r3, [pc, #392]	@ (8001bbc <USBdev_HandleRequest+0x230>)
 8001a34:	801a      	strh	r2, [r3, #0]
				USBdev_SendStatus(usbd, (const uint8_t *)&epstatus, 2, 0);
 8001a36:	4961      	ldr	r1, [pc, #388]	@ (8001bbc <USBdev_HandleRequest+0x230>)
 8001a38:	6878      	ldr	r0, [r7, #4]
 8001a3a:	2300      	movs	r3, #0
 8001a3c:	2202      	movs	r2, #2
 8001a3e:	f7ff fea7 	bl	8001790 <USBdev_SendStatus>
				break;
 8001a42:	e004      	b.n	8001a4e <USBdev_HandleRequest+0xc2>
			default:
				USBdev_CtrlError(usbd);	// stall on unhandled requests
 8001a44:	687b      	ldr	r3, [r7, #4]
 8001a46:	0018      	movs	r0, r3
 8001a48:	f7ff fece 	bl	80017e8 <USBdev_CtrlError>
			}
			break;
 8001a4c:	e0a2      	b.n	8001b94 <USBdev_HandleRequest+0x208>
 8001a4e:	e0a1      	b.n	8001b94 <USBdev_HandleRequest+0x208>

		case USB_STDRQ_GET_CONFIGURATION:
			USBdev_SendStatus(usbd, &usbd->devdata->configuration, 1, 0);
 8001a50:	687b      	ldr	r3, [r7, #4]
 8001a52:	68db      	ldr	r3, [r3, #12]
 8001a54:	1c59      	adds	r1, r3, #1
 8001a56:	6878      	ldr	r0, [r7, #4]
 8001a58:	2300      	movs	r3, #0
 8001a5a:	2201      	movs	r2, #1
 8001a5c:	f7ff fe98 	bl	8001790 <USBdev_SendStatus>
			break;
 8001a60:	e098      	b.n	8001b94 <USBdev_HandleRequest+0x208>

		case USB_STDRQ_SET_CONFIGURATION:
			switch (req->wValue.w)
 8001a62:	697b      	ldr	r3, [r7, #20]
 8001a64:	885b      	ldrh	r3, [r3, #2]
 8001a66:	2b00      	cmp	r3, #0
 8001a68:	d002      	beq.n	8001a70 <USBdev_HandleRequest+0xe4>
 8001a6a:	2b01      	cmp	r3, #1
 8001a6c:	d013      	beq.n	8001a96 <USBdev_HandleRequest+0x10a>
 8001a6e:	e025      	b.n	8001abc <USBdev_HandleRequest+0x130>
			{
			case 0:	// deconfig
				usbd->devdata->configuration = 0;
 8001a70:	687b      	ldr	r3, [r7, #4]
 8001a72:	68db      	ldr	r3, [r3, #12]
 8001a74:	2200      	movs	r2, #0
 8001a76:	705a      	strb	r2, [r3, #1]
				usbd->hwif->ResetCfg(usbd);
 8001a78:	687b      	ldr	r3, [r7, #4]
 8001a7a:	685b      	ldr	r3, [r3, #4]
 8001a7c:	695b      	ldr	r3, [r3, #20]
 8001a7e:	687a      	ldr	r2, [r7, #4]
 8001a80:	0010      	movs	r0, r2
 8001a82:	4798      	blx	r3
				USBdev_SendStatusOK(usbd);
 8001a84:	687b      	ldr	r3, [r7, #4]
 8001a86:	0018      	movs	r0, r3
 8001a88:	f7ff fea0 	bl	80017cc <USBdev_SendStatusOK>
				usbd->devdata->devstate = USBD_STATE_ADDRESSED;
 8001a8c:	687b      	ldr	r3, [r7, #4]
 8001a8e:	68db      	ldr	r3, [r3, #12]
 8001a90:	2201      	movs	r2, #1
 8001a92:	701a      	strb	r2, [r3, #0]
				break;
 8001a94:	e017      	b.n	8001ac6 <USBdev_HandleRequest+0x13a>
			case 1:	// config
				usbd->devdata->configuration = 1;
 8001a96:	687b      	ldr	r3, [r7, #4]
 8001a98:	68db      	ldr	r3, [r3, #12]
 8001a9a:	2201      	movs	r2, #1
 8001a9c:	705a      	strb	r2, [r3, #1]
				usbd->hwif->SetCfg(usbd);
 8001a9e:	687b      	ldr	r3, [r7, #4]
 8001aa0:	685b      	ldr	r3, [r3, #4]
 8001aa2:	691b      	ldr	r3, [r3, #16]
 8001aa4:	687a      	ldr	r2, [r7, #4]
 8001aa6:	0010      	movs	r0, r2
 8001aa8:	4798      	blx	r3
				USBdev_SendStatusOK(usbd);
 8001aaa:	687b      	ldr	r3, [r7, #4]
 8001aac:	0018      	movs	r0, r3
 8001aae:	f7ff fe8d 	bl	80017cc <USBdev_SendStatusOK>
				usbd->devdata->devstate = USBD_STATE_CONFIGURED;
 8001ab2:	687b      	ldr	r3, [r7, #4]
 8001ab4:	68db      	ldr	r3, [r3, #12]
 8001ab6:	2202      	movs	r2, #2
 8001ab8:	701a      	strb	r2, [r3, #0]
				break;
 8001aba:	e004      	b.n	8001ac6 <USBdev_HandleRequest+0x13a>
			default:
				USBdev_CtrlError(usbd);	// stall on unhandled requests
 8001abc:	687b      	ldr	r3, [r7, #4]
 8001abe:	0018      	movs	r0, r3
 8001ac0:	f7ff fe92 	bl	80017e8 <USBdev_CtrlError>
			}
			break;
 8001ac4:	e066      	b.n	8001b94 <USBdev_HandleRequest+0x208>
 8001ac6:	e065      	b.n	8001b94 <USBdev_HandleRequest+0x208>

		case USB_STDRQ_CLEAR_FEATURE:
			if (req->bmRequestType.Recipient == USB_RQREC_ENDPOINT && req->wValue.b.l == USB_FEATSEL_ENDPOINT_HALT)
 8001ac8:	697b      	ldr	r3, [r7, #20]
 8001aca:	781b      	ldrb	r3, [r3, #0]
 8001acc:	221f      	movs	r2, #31
 8001ace:	4013      	ands	r3, r2
 8001ad0:	b2db      	uxtb	r3, r3
 8001ad2:	2b02      	cmp	r3, #2
 8001ad4:	d137      	bne.n	8001b46 <USBdev_HandleRequest+0x1ba>
 8001ad6:	697b      	ldr	r3, [r7, #20]
 8001ad8:	789b      	ldrb	r3, [r3, #2]
 8001ada:	2b00      	cmp	r3, #0
 8001adc:	d133      	bne.n	8001b46 <USBdev_HandleRequest+0x1ba>
			{
				uint8_t epaddr = req->wIndex.b.l;
 8001ade:	2113      	movs	r1, #19
 8001ae0:	187b      	adds	r3, r7, r1
 8001ae2:	697a      	ldr	r2, [r7, #20]
 8001ae4:	7912      	ldrb	r2, [r2, #4]
 8001ae6:	701a      	strb	r2, [r3, #0]
				if ((epaddr & EP_IS_IN) && (epaddr & EPNUMMSK) < USBD_NUM_EPPAIRS)
 8001ae8:	187b      	adds	r3, r7, r1
 8001aea:	781b      	ldrb	r3, [r3, #0]
 8001aec:	b25b      	sxtb	r3, r3
 8001aee:	2b00      	cmp	r3, #0
 8001af0:	da13      	bge.n	8001b1a <USBdev_HandleRequest+0x18e>
 8001af2:	187b      	adds	r3, r7, r1
 8001af4:	781b      	ldrb	r3, [r3, #0]
 8001af6:	2207      	movs	r2, #7
 8001af8:	4013      	ands	r3, r2
 8001afa:	2b05      	cmp	r3, #5
 8001afc:	d80d      	bhi.n	8001b1a <USBdev_HandleRequest+0x18e>
				{
					usbd->inep[epaddr & EPNUMMSK] = (struct epdata_){0, 0, 0, 0};
 8001afe:	687b      	ldr	r3, [r7, #4]
 8001b00:	695a      	ldr	r2, [r3, #20]
 8001b02:	187b      	adds	r3, r7, r1
 8001b04:	781b      	ldrb	r3, [r3, #0]
 8001b06:	2107      	movs	r1, #7
 8001b08:	400b      	ands	r3, r1
 8001b0a:	00db      	lsls	r3, r3, #3
 8001b0c:	18d3      	adds	r3, r2, r3
 8001b0e:	0018      	movs	r0, r3
 8001b10:	2308      	movs	r3, #8
 8001b12:	001a      	movs	r2, r3
 8001b14:	2100      	movs	r1, #0
 8001b16:	f000 ffcd 	bl	8002ab4 <memset>
				}
				USBclass_ClearEPStall(usbd, epaddr);
 8001b1a:	2413      	movs	r4, #19
 8001b1c:	193b      	adds	r3, r7, r4
 8001b1e:	781a      	ldrb	r2, [r3, #0]
 8001b20:	687b      	ldr	r3, [r7, #4]
 8001b22:	0011      	movs	r1, r2
 8001b24:	0018      	movs	r0, r3
 8001b26:	f7ff fbe7 	bl	80012f8 <USBclass_ClearEPStall>
				usbd->hwif->ClrEPStall(usbd, epaddr);
 8001b2a:	687b      	ldr	r3, [r7, #4]
 8001b2c:	685b      	ldr	r3, [r3, #4]
 8001b2e:	69db      	ldr	r3, [r3, #28]
 8001b30:	193a      	adds	r2, r7, r4
 8001b32:	7811      	ldrb	r1, [r2, #0]
 8001b34:	687a      	ldr	r2, [r7, #4]
 8001b36:	0010      	movs	r0, r2
 8001b38:	4798      	blx	r3
				USBdev_SendStatusOK(usbd);
 8001b3a:	687b      	ldr	r3, [r7, #4]
 8001b3c:	0018      	movs	r0, r3
 8001b3e:	f7ff fe45 	bl	80017cc <USBdev_SendStatusOK>
			{
 8001b42:	46c0      	nop			@ (mov r8, r8)
			}
			else
				USBdev_CtrlError(usbd);	// stall on unhandled requests
			break;
 8001b44:	e026      	b.n	8001b94 <USBdev_HandleRequest+0x208>
				USBdev_CtrlError(usbd);	// stall on unhandled requests
 8001b46:	687b      	ldr	r3, [r7, #4]
 8001b48:	0018      	movs	r0, r3
 8001b4a:	f7ff fe4d 	bl	80017e8 <USBdev_CtrlError>
			break;
 8001b4e:	e021      	b.n	8001b94 <USBdev_HandleRequest+0x208>
		case USB_STDRQ_SET_FEATURE:
			if (req->bmRequestType.Recipient == USB_RQREC_ENDPOINT && req->wValue.b.l == USB_FEATSEL_ENDPOINT_HALT)
 8001b50:	697b      	ldr	r3, [r7, #20]
 8001b52:	781b      	ldrb	r3, [r3, #0]
 8001b54:	221f      	movs	r2, #31
 8001b56:	4013      	ands	r3, r2
 8001b58:	b2db      	uxtb	r3, r3
 8001b5a:	2b02      	cmp	r3, #2
 8001b5c:	d110      	bne.n	8001b80 <USBdev_HandleRequest+0x1f4>
 8001b5e:	697b      	ldr	r3, [r7, #20]
 8001b60:	789b      	ldrb	r3, [r3, #2]
 8001b62:	2b00      	cmp	r3, #0
 8001b64:	d10c      	bne.n	8001b80 <USBdev_HandleRequest+0x1f4>
			{
				usbd->hwif->SetEPStall(usbd, req->wIndex.b.l);
 8001b66:	687b      	ldr	r3, [r7, #4]
 8001b68:	685b      	ldr	r3, [r3, #4]
 8001b6a:	699b      	ldr	r3, [r3, #24]
 8001b6c:	697a      	ldr	r2, [r7, #20]
 8001b6e:	7911      	ldrb	r1, [r2, #4]
 8001b70:	687a      	ldr	r2, [r7, #4]
 8001b72:	0010      	movs	r0, r2
 8001b74:	4798      	blx	r3
				USBdev_SendStatusOK(usbd);
 8001b76:	687b      	ldr	r3, [r7, #4]
 8001b78:	0018      	movs	r0, r3
 8001b7a:	f7ff fe27 	bl	80017cc <USBdev_SendStatusOK>
			}
			else
				USBdev_CtrlError(usbd);	// stall on unhandled requests
			break;
 8001b7e:	e009      	b.n	8001b94 <USBdev_HandleRequest+0x208>
				USBdev_CtrlError(usbd);	// stall on unhandled requests
 8001b80:	687b      	ldr	r3, [r7, #4]
 8001b82:	0018      	movs	r0, r3
 8001b84:	f7ff fe30 	bl	80017e8 <USBdev_CtrlError>
			break;
 8001b88:	e004      	b.n	8001b94 <USBdev_HandleRequest+0x208>
		default:
			USBdev_CtrlError(usbd);	// stall on unhandled requests
 8001b8a:	687b      	ldr	r3, [r7, #4]
 8001b8c:	0018      	movs	r0, r3
 8001b8e:	f7ff fe2b 	bl	80017e8 <USBdev_CtrlError>
		}
		break;
 8001b92:	e00a      	b.n	8001baa <USBdev_HandleRequest+0x21e>
 8001b94:	e009      	b.n	8001baa <USBdev_HandleRequest+0x21e>
	
	case USB_RQTYPE_CLASS:
		USBclass_HandleRequest(usbd);
 8001b96:	687b      	ldr	r3, [r7, #4]
 8001b98:	0018      	movs	r0, r3
 8001b9a:	f7ff fbe7 	bl	800136c <USBclass_HandleRequest>
		break;
 8001b9e:	e004      	b.n	8001baa <USBdev_HandleRequest+0x21e>
	default:
		USBdev_CtrlError(usbd);// should stall on unhandled requests
 8001ba0:	687b      	ldr	r3, [r7, #4]
 8001ba2:	0018      	movs	r0, r3
 8001ba4:	f7ff fe20 	bl	80017e8 <USBdev_CtrlError>
	}
}
 8001ba8:	46c0      	nop			@ (mov r8, r8)
 8001baa:	46c0      	nop			@ (mov r8, r8)
 8001bac:	46bd      	mov	sp, r7
 8001bae:	b007      	add	sp, #28
 8001bb0:	bd90      	pop	{r4, r7, pc}
 8001bb2:	46c0      	nop			@ (mov r8, r8)
 8001bb4:	08002ddc 	.word	0x08002ddc
 8001bb8:	08002e04 	.word	0x08002e04
 8001bbc:	2000023e 	.word	0x2000023e

08001bc0 <USBdev_InEPHandler>:

// data sent on In endpoint
void USBdev_InEPHandler(const struct usbdevice_ *usbd, uint8_t epn)
{
 8001bc0:	b580      	push	{r7, lr}
 8001bc2:	b084      	sub	sp, #16
 8001bc4:	af00      	add	r7, sp, #0
 8001bc6:	6078      	str	r0, [r7, #4]
 8001bc8:	000a      	movs	r2, r1
 8001bca:	1cfb      	adds	r3, r7, #3
 8001bcc:	701a      	strb	r2, [r3, #0]
	struct epdata_ *epd = &usbd->inep[epn];
 8001bce:	687b      	ldr	r3, [r7, #4]
 8001bd0:	695a      	ldr	r2, [r3, #20]
 8001bd2:	1cfb      	adds	r3, r7, #3
 8001bd4:	781b      	ldrb	r3, [r3, #0]
 8001bd6:	00db      	lsls	r3, r3, #3
 8001bd8:	18d3      	adds	r3, r2, r3
 8001bda:	60fb      	str	r3, [r7, #12]
	
	// In transfer completed
	epd->ptr = 0;
 8001bdc:	68fb      	ldr	r3, [r7, #12]
 8001bde:	2200      	movs	r2, #0
 8001be0:	601a      	str	r2, [r3, #0]
	epd->busy = 0;
 8001be2:	68fb      	ldr	r3, [r7, #12]
 8001be4:	2200      	movs	r2, #0
 8001be6:	71da      	strb	r2, [r3, #7]
	if (epn)	// application ep
 8001be8:	1cfb      	adds	r3, r7, #3
 8001bea:	781b      	ldrb	r3, [r3, #0]
 8001bec:	2b00      	cmp	r3, #0
 8001bee:	d01b      	beq.n	8001c28 <USBdev_InEPHandler+0x68>
	{
		if (usbd->cfg->inepcfg[epn].handler)
 8001bf0:	687b      	ldr	r3, [r7, #4]
 8001bf2:	689b      	ldr	r3, [r3, #8]
 8001bf4:	689a      	ldr	r2, [r3, #8]
 8001bf6:	1cfb      	adds	r3, r7, #3
 8001bf8:	781b      	ldrb	r3, [r3, #0]
 8001bfa:	00db      	lsls	r3, r3, #3
 8001bfc:	18d3      	adds	r3, r2, r3
 8001bfe:	685b      	ldr	r3, [r3, #4]
 8001c00:	2b00      	cmp	r3, #0
 8001c02:	d01e      	beq.n	8001c42 <USBdev_InEPHandler+0x82>
			usbd->cfg->inepcfg[epn].handler(usbd, epn | EP_IS_IN);
 8001c04:	687b      	ldr	r3, [r7, #4]
 8001c06:	689b      	ldr	r3, [r3, #8]
 8001c08:	689a      	ldr	r2, [r3, #8]
 8001c0a:	1cfb      	adds	r3, r7, #3
 8001c0c:	781b      	ldrb	r3, [r3, #0]
 8001c0e:	00db      	lsls	r3, r3, #3
 8001c10:	18d3      	adds	r3, r2, r3
 8001c12:	685b      	ldr	r3, [r3, #4]
 8001c14:	1cfa      	adds	r2, r7, #3
 8001c16:	7812      	ldrb	r2, [r2, #0]
 8001c18:	2180      	movs	r1, #128	@ 0x80
 8001c1a:	4249      	negs	r1, r1
 8001c1c:	430a      	orrs	r2, r1
 8001c1e:	b2d1      	uxtb	r1, r2
 8001c20:	687a      	ldr	r2, [r7, #4]
 8001c22:	0010      	movs	r0, r2
 8001c24:	4798      	blx	r3
			usbd->devdata->devstate = USBD_STATE_ADDRESSED;
		}

		USBlog_recordevt(0x80);
	}
}
 8001c26:	e00c      	b.n	8001c42 <USBdev_InEPHandler+0x82>
		if (usbd->devdata->setaddress)
 8001c28:	687b      	ldr	r3, [r7, #4]
 8001c2a:	68db      	ldr	r3, [r3, #12]
 8001c2c:	789b      	ldrb	r3, [r3, #2]
 8001c2e:	2b00      	cmp	r3, #0
 8001c30:	d007      	beq.n	8001c42 <USBdev_InEPHandler+0x82>
			usbd->devdata->setaddress = 0;
 8001c32:	687b      	ldr	r3, [r7, #4]
 8001c34:	68db      	ldr	r3, [r3, #12]
 8001c36:	2200      	movs	r2, #0
 8001c38:	709a      	strb	r2, [r3, #2]
			usbd->devdata->devstate = USBD_STATE_ADDRESSED;
 8001c3a:	687b      	ldr	r3, [r7, #4]
 8001c3c:	68db      	ldr	r3, [r3, #12]
 8001c3e:	2201      	movs	r2, #1
 8001c40:	701a      	strb	r2, [r3, #0]
}
 8001c42:	46c0      	nop			@ (mov r8, r8)
 8001c44:	46bd      	mov	sp, r7
 8001c46:	b004      	add	sp, #16
 8001c48:	bd80      	pop	{r7, pc}

08001c4a <USBdev_OutEPHandler>:

// data received on Out endpoint
void USBdev_OutEPHandler(const struct usbdevice_ *usbd, uint8_t epn, bool setup)
{
 8001c4a:	b580      	push	{r7, lr}
 8001c4c:	b084      	sub	sp, #16
 8001c4e:	af00      	add	r7, sp, #0
 8001c50:	6078      	str	r0, [r7, #4]
 8001c52:	0008      	movs	r0, r1
 8001c54:	0011      	movs	r1, r2
 8001c56:	1cfb      	adds	r3, r7, #3
 8001c58:	1c02      	adds	r2, r0, #0
 8001c5a:	701a      	strb	r2, [r3, #0]
 8001c5c:	1cbb      	adds	r3, r7, #2
 8001c5e:	1c0a      	adds	r2, r1, #0
 8001c60:	701a      	strb	r2, [r3, #0]
	if (epn == 0)	// control endpoint
 8001c62:	1cfb      	adds	r3, r7, #3
 8001c64:	781b      	ldrb	r3, [r3, #0]
 8001c66:	2b00      	cmp	r3, #0
 8001c68:	d14f      	bne.n	8001d0a <USBdev_OutEPHandler+0xc0>
	{
		if (usbd->outep[0].count)
 8001c6a:	687b      	ldr	r3, [r7, #4]
 8001c6c:	691b      	ldr	r3, [r3, #16]
 8001c6e:	889b      	ldrh	r3, [r3, #4]
 8001c70:	2b00      	cmp	r3, #0
 8001c72:	d040      	beq.n	8001cf6 <USBdev_OutEPHandler+0xac>
		{
			if (setup)
 8001c74:	1cbb      	adds	r3, r7, #2
 8001c76:	781b      	ldrb	r3, [r3, #0]
 8001c78:	2b00      	cmp	r3, #0
 8001c7a:	d02d      	beq.n	8001cd8 <USBdev_OutEPHandler+0x8e>
			{
				// setup packet received - copy to setup packet buffer
				USB_SetupPacket *req = &usbd->devdata->req;
 8001c7c:	687b      	ldr	r3, [r7, #4]
 8001c7e:	68db      	ldr	r3, [r3, #12]
 8001c80:	3306      	adds	r3, #6
 8001c82:	60fb      	str	r3, [r7, #12]
				*req = *(USB_SetupPacket *)usbd->outep[0].ptr;
 8001c84:	687b      	ldr	r3, [r7, #4]
 8001c86:	691b      	ldr	r3, [r3, #16]
 8001c88:	681b      	ldr	r3, [r3, #0]
 8001c8a:	68fa      	ldr	r2, [r7, #12]
 8001c8c:	0010      	movs	r0, r2
 8001c8e:	0019      	movs	r1, r3
 8001c90:	2308      	movs	r3, #8
 8001c92:	001a      	movs	r2, r3
 8001c94:	f000 ff3a 	bl	8002b0c <memcpy>
				USBlog_storerq(req);
				if (req->bmRequestType.DirIn || req->wLength == 0)
 8001c98:	68fb      	ldr	r3, [r7, #12]
 8001c9a:	781b      	ldrb	r3, [r3, #0]
 8001c9c:	227f      	movs	r2, #127	@ 0x7f
 8001c9e:	4393      	bics	r3, r2
 8001ca0:	b2db      	uxtb	r3, r3
 8001ca2:	2b00      	cmp	r3, #0
 8001ca4:	d103      	bne.n	8001cae <USBdev_OutEPHandler+0x64>
 8001ca6:	68fb      	ldr	r3, [r7, #12]
 8001ca8:	88db      	ldrh	r3, [r3, #6]
 8001caa:	2b00      	cmp	r3, #0
 8001cac:	d108      	bne.n	8001cc0 <USBdev_OutEPHandler+0x76>
				{
					usbd->devdata->ep0state = USBD_EP0_SETUP;
 8001cae:	687b      	ldr	r3, [r7, #4]
 8001cb0:	68db      	ldr	r3, [r3, #12]
 8001cb2:	2201      	movs	r2, #1
 8001cb4:	70da      	strb	r2, [r3, #3]
					// ok for F0, L0, wrong for F4
					//usbd->hwif->SetEPStall(usbd, 0);	// disable ep 0 data out
					USBdev_HandleRequest(usbd);	// handle in request or no-data out request
 8001cb6:	687b      	ldr	r3, [r7, #4]
 8001cb8:	0018      	movs	r0, r3
 8001cba:	f7ff fe67 	bl	800198c <USBdev_HandleRequest>
	else // data received on application endpoint
	{
		if (epn < usbd->cfg->numeppairs && usbd->cfg->outepcfg[epn].handler)
			usbd->cfg->outepcfg[epn].handler(usbd, epn);
	}
}
 8001cbe:	e046      	b.n	8001d4e <USBdev_OutEPHandler+0x104>
					usbd->devdata->ep0state = USBD_EP0_DATA_OUT;
 8001cc0:	687b      	ldr	r3, [r7, #4]
 8001cc2:	68db      	ldr	r3, [r3, #12]
 8001cc4:	2203      	movs	r2, #3
 8001cc6:	70da      	strb	r2, [r3, #3]
					usbd->hwif->EnableRx(usbd, 0);	// prepare for data out
 8001cc8:	687b      	ldr	r3, [r7, #4]
 8001cca:	685b      	ldr	r3, [r3, #4]
 8001ccc:	6a9b      	ldr	r3, [r3, #40]	@ 0x28
 8001cce:	687a      	ldr	r2, [r7, #4]
 8001cd0:	2100      	movs	r1, #0
 8001cd2:	0010      	movs	r0, r2
 8001cd4:	4798      	blx	r3
}
 8001cd6:	e03a      	b.n	8001d4e <USBdev_OutEPHandler+0x104>
				if (usbd->devdata->ep0state == USBD_EP0_DATA_OUT)
 8001cd8:	687b      	ldr	r3, [r7, #4]
 8001cda:	68db      	ldr	r3, [r3, #12]
 8001cdc:	78db      	ldrb	r3, [r3, #3]
 8001cde:	2b03      	cmp	r3, #3
 8001ce0:	d104      	bne.n	8001cec <USBdev_OutEPHandler+0xa2>
					USBdev_HandleRequest(usbd);	// data received
 8001ce2:	687b      	ldr	r3, [r7, #4]
 8001ce4:	0018      	movs	r0, r3
 8001ce6:	f7ff fe51 	bl	800198c <USBdev_HandleRequest>
}
 8001cea:	e030      	b.n	8001d4e <USBdev_OutEPHandler+0x104>
					usbd->devdata->ep0state = USBD_EP0_IDLE;
 8001cec:	687b      	ldr	r3, [r7, #4]
 8001cee:	68db      	ldr	r3, [r3, #12]
 8001cf0:	2200      	movs	r2, #0
 8001cf2:	70da      	strb	r2, [r3, #3]
}
 8001cf4:	e02b      	b.n	8001d4e <USBdev_OutEPHandler+0x104>
			if (usbd->devdata->ep0state == USBD_EP0_STATUS_OUT)
 8001cf6:	687b      	ldr	r3, [r7, #4]
 8001cf8:	68db      	ldr	r3, [r3, #12]
 8001cfa:	78db      	ldrb	r3, [r3, #3]
 8001cfc:	2b05      	cmp	r3, #5
 8001cfe:	d126      	bne.n	8001d4e <USBdev_OutEPHandler+0x104>
				usbd->devdata->ep0state = USBD_EP0_IDLE;
 8001d00:	687b      	ldr	r3, [r7, #4]
 8001d02:	68db      	ldr	r3, [r3, #12]
 8001d04:	2200      	movs	r2, #0
 8001d06:	70da      	strb	r2, [r3, #3]
}
 8001d08:	e021      	b.n	8001d4e <USBdev_OutEPHandler+0x104>
		if (epn < usbd->cfg->numeppairs && usbd->cfg->outepcfg[epn].handler)
 8001d0a:	687b      	ldr	r3, [r7, #4]
 8001d0c:	689b      	ldr	r3, [r3, #8]
 8001d0e:	789b      	ldrb	r3, [r3, #2]
 8001d10:	06db      	lsls	r3, r3, #27
 8001d12:	0edb      	lsrs	r3, r3, #27
 8001d14:	b2db      	uxtb	r3, r3
 8001d16:	001a      	movs	r2, r3
 8001d18:	1cfb      	adds	r3, r7, #3
 8001d1a:	781b      	ldrb	r3, [r3, #0]
 8001d1c:	4293      	cmp	r3, r2
 8001d1e:	d216      	bcs.n	8001d4e <USBdev_OutEPHandler+0x104>
 8001d20:	687b      	ldr	r3, [r7, #4]
 8001d22:	689b      	ldr	r3, [r3, #8]
 8001d24:	685a      	ldr	r2, [r3, #4]
 8001d26:	1cfb      	adds	r3, r7, #3
 8001d28:	781b      	ldrb	r3, [r3, #0]
 8001d2a:	00db      	lsls	r3, r3, #3
 8001d2c:	18d3      	adds	r3, r2, r3
 8001d2e:	685b      	ldr	r3, [r3, #4]
 8001d30:	2b00      	cmp	r3, #0
 8001d32:	d00c      	beq.n	8001d4e <USBdev_OutEPHandler+0x104>
			usbd->cfg->outepcfg[epn].handler(usbd, epn);
 8001d34:	687b      	ldr	r3, [r7, #4]
 8001d36:	689b      	ldr	r3, [r3, #8]
 8001d38:	685a      	ldr	r2, [r3, #4]
 8001d3a:	1cfb      	adds	r3, r7, #3
 8001d3c:	781b      	ldrb	r3, [r3, #0]
 8001d3e:	00db      	lsls	r3, r3, #3
 8001d40:	18d3      	adds	r3, r2, r3
 8001d42:	685b      	ldr	r3, [r3, #4]
 8001d44:	1cfa      	adds	r2, r7, #3
 8001d46:	7811      	ldrb	r1, [r2, #0]
 8001d48:	687a      	ldr	r2, [r7, #4]
 8001d4a:	0010      	movs	r0, r2
 8001d4c:	4798      	blx	r3
}
 8001d4e:	46c0      	nop			@ (mov r8, r8)
 8001d50:	46bd      	mov	sp, r7
 8001d52:	b004      	add	sp, #16
 8001d54:	bd80      	pop	{r7, pc}

08001d56 <USBdev_GetEPDescriptor>:

// find an endpoint descriptor for the specified endpoint - called from usb_hw_xx.c during configuration
const struct USBdesc_ep_ *USBdev_GetEPDescriptor(const struct usbdevice_ *usbd, uint8_t epaddr)
{
 8001d56:	b590      	push	{r4, r7, lr}
 8001d58:	b087      	sub	sp, #28
 8001d5a:	af00      	add	r7, sp, #0
 8001d5c:	6078      	str	r0, [r7, #4]
 8001d5e:	000a      	movs	r2, r1
 8001d60:	1cfb      	adds	r3, r7, #3
 8001d62:	701a      	strb	r2, [r3, #0]
	const struct USBdesc_config_ *cd = usbd->cfg->cfgdesc;
 8001d64:	687b      	ldr	r3, [r7, #4]
 8001d66:	689b      	ldr	r3, [r3, #8]
 8001d68:	695b      	ldr	r3, [r3, #20]
 8001d6a:	613b      	str	r3, [r7, #16]
	uint16_t cfgdescsize = getusb16(&cd->wTotalLength);
 8001d6c:	693b      	ldr	r3, [r7, #16]
 8001d6e:	3302      	adds	r3, #2
 8001d70:	220e      	movs	r2, #14
 8001d72:	18bc      	adds	r4, r7, r2
 8001d74:	0018      	movs	r0, r3
 8001d76:	f7ff fc83 	bl	8001680 <getusb16>
 8001d7a:	0003      	movs	r3, r0
 8001d7c:	8023      	strh	r3, [r4, #0]
	const struct USBdesc_ep_ *epd;

	for (uint16_t epdoffset = cd->bLength; epdoffset < cfgdescsize; epdoffset += epd->bLength)
 8001d7e:	693b      	ldr	r3, [r7, #16]
 8001d80:	781a      	ldrb	r2, [r3, #0]
 8001d82:	2316      	movs	r3, #22
 8001d84:	18fb      	adds	r3, r7, r3
 8001d86:	801a      	strh	r2, [r3, #0]
 8001d88:	e01a      	b.n	8001dc0 <USBdev_GetEPDescriptor+0x6a>
	{
		epd = (const struct USBdesc_ep_ *)((uint8_t *)cd + epdoffset);
 8001d8a:	2316      	movs	r3, #22
 8001d8c:	18fb      	adds	r3, r7, r3
 8001d8e:	881b      	ldrh	r3, [r3, #0]
 8001d90:	693a      	ldr	r2, [r7, #16]
 8001d92:	18d3      	adds	r3, r2, r3
 8001d94:	60bb      	str	r3, [r7, #8]
		if (epd->bDescriptorType == USB_DESCTYPE_ENDPOINT && epd->bEndpointAddress == epaddr)
 8001d96:	68bb      	ldr	r3, [r7, #8]
 8001d98:	785b      	ldrb	r3, [r3, #1]
 8001d9a:	2b05      	cmp	r3, #5
 8001d9c:	d107      	bne.n	8001dae <USBdev_GetEPDescriptor+0x58>
 8001d9e:	68bb      	ldr	r3, [r7, #8]
 8001da0:	789b      	ldrb	r3, [r3, #2]
 8001da2:	1cfa      	adds	r2, r7, #3
 8001da4:	7812      	ldrb	r2, [r2, #0]
 8001da6:	429a      	cmp	r2, r3
 8001da8:	d101      	bne.n	8001dae <USBdev_GetEPDescriptor+0x58>
			return epd;
 8001daa:	68bb      	ldr	r3, [r7, #8]
 8001dac:	e011      	b.n	8001dd2 <USBdev_GetEPDescriptor+0x7c>
	for (uint16_t epdoffset = cd->bLength; epdoffset < cfgdescsize; epdoffset += epd->bLength)
 8001dae:	68bb      	ldr	r3, [r7, #8]
 8001db0:	781b      	ldrb	r3, [r3, #0]
 8001db2:	0019      	movs	r1, r3
 8001db4:	2216      	movs	r2, #22
 8001db6:	18bb      	adds	r3, r7, r2
 8001db8:	18ba      	adds	r2, r7, r2
 8001dba:	8812      	ldrh	r2, [r2, #0]
 8001dbc:	188a      	adds	r2, r1, r2
 8001dbe:	801a      	strh	r2, [r3, #0]
 8001dc0:	2316      	movs	r3, #22
 8001dc2:	18fa      	adds	r2, r7, r3
 8001dc4:	230e      	movs	r3, #14
 8001dc6:	18fb      	adds	r3, r7, r3
 8001dc8:	8812      	ldrh	r2, [r2, #0]
 8001dca:	881b      	ldrh	r3, [r3, #0]
 8001dcc:	429a      	cmp	r2, r3
 8001dce:	d3dc      	bcc.n	8001d8a <USBdev_GetEPDescriptor+0x34>
	}
	return 0;
 8001dd0:	2300      	movs	r3, #0
}
 8001dd2:	0018      	movs	r0, r3
 8001dd4:	46bd      	mov	sp, r7
 8001dd6:	b007      	add	sp, #28
 8001dd8:	bd90      	pop	{r4, r7, pc}
	...

08001ddc <__NVIC_EnableIRQ>:
{
 8001ddc:	b580      	push	{r7, lr}
 8001dde:	b082      	sub	sp, #8
 8001de0:	af00      	add	r7, sp, #0
 8001de2:	0002      	movs	r2, r0
 8001de4:	1dfb      	adds	r3, r7, #7
 8001de6:	701a      	strb	r2, [r3, #0]
  if ((int32_t)(IRQn) >= 0)
 8001de8:	1dfb      	adds	r3, r7, #7
 8001dea:	781b      	ldrb	r3, [r3, #0]
 8001dec:	2b7f      	cmp	r3, #127	@ 0x7f
 8001dee:	d809      	bhi.n	8001e04 <__NVIC_EnableIRQ+0x28>
    NVIC->ISER[0U] = (uint32_t)(1UL << (((uint32_t)IRQn) & 0x1FUL));
 8001df0:	1dfb      	adds	r3, r7, #7
 8001df2:	781b      	ldrb	r3, [r3, #0]
 8001df4:	001a      	movs	r2, r3
 8001df6:	231f      	movs	r3, #31
 8001df8:	401a      	ands	r2, r3
 8001dfa:	4b04      	ldr	r3, [pc, #16]	@ (8001e0c <__NVIC_EnableIRQ+0x30>)
 8001dfc:	2101      	movs	r1, #1
 8001dfe:	4091      	lsls	r1, r2
 8001e00:	000a      	movs	r2, r1
 8001e02:	601a      	str	r2, [r3, #0]
}
 8001e04:	46c0      	nop			@ (mov r8, r8)
 8001e06:	46bd      	mov	sp, r7
 8001e08:	b002      	add	sp, #8
 8001e0a:	bd80      	pop	{r7, pc}
 8001e0c:	e000e100 	.word	0xe000e100

08001e10 <__NVIC_DisableIRQ>:
{
 8001e10:	b580      	push	{r7, lr}
 8001e12:	b082      	sub	sp, #8
 8001e14:	af00      	add	r7, sp, #0
 8001e16:	0002      	movs	r2, r0
 8001e18:	1dfb      	adds	r3, r7, #7
 8001e1a:	701a      	strb	r2, [r3, #0]
  if ((int32_t)(IRQn) >= 0)
 8001e1c:	1dfb      	adds	r3, r7, #7
 8001e1e:	781b      	ldrb	r3, [r3, #0]
 8001e20:	2b7f      	cmp	r3, #127	@ 0x7f
 8001e22:	d810      	bhi.n	8001e46 <__NVIC_DisableIRQ+0x36>
    NVIC->ICER[0U] = (uint32_t)(1UL << (((uint32_t)IRQn) & 0x1FUL));
 8001e24:	1dfb      	adds	r3, r7, #7
 8001e26:	781b      	ldrb	r3, [r3, #0]
 8001e28:	001a      	movs	r2, r3
 8001e2a:	231f      	movs	r3, #31
 8001e2c:	4013      	ands	r3, r2
 8001e2e:	4908      	ldr	r1, [pc, #32]	@ (8001e50 <__NVIC_DisableIRQ+0x40>)
 8001e30:	2201      	movs	r2, #1
 8001e32:	409a      	lsls	r2, r3
 8001e34:	0013      	movs	r3, r2
 8001e36:	2280      	movs	r2, #128	@ 0x80
 8001e38:	508b      	str	r3, [r1, r2]
  __ASM volatile ("dsb 0xF":::"memory");
 8001e3a:	f3bf 8f4f 	dsb	sy
}
 8001e3e:	46c0      	nop			@ (mov r8, r8)
  __ASM volatile ("isb 0xF":::"memory");
 8001e40:	f3bf 8f6f 	isb	sy
}
 8001e44:	46c0      	nop			@ (mov r8, r8)
}
 8001e46:	46c0      	nop			@ (mov r8, r8)
 8001e48:	46bd      	mov	sp, r7
 8001e4a:	b002      	add	sp, #8
 8001e4c:	bd80      	pop	{r7, pc}
 8001e4e:	46c0      	nop			@ (mov r8, r8)
 8001e50:	e000e100 	.word	0xe000e100

08001e54 <getusb16>:
{
 8001e54:	b580      	push	{r7, lr}
 8001e56:	b082      	sub	sp, #8
 8001e58:	af00      	add	r7, sp, #0
 8001e5a:	6078      	str	r0, [r7, #4]
	return p->lo | p->hi << 8;
 8001e5c:	687b      	ldr	r3, [r7, #4]
 8001e5e:	781b      	ldrb	r3, [r3, #0]
 8001e60:	b21a      	sxth	r2, r3
 8001e62:	687b      	ldr	r3, [r7, #4]
 8001e64:	785b      	ldrb	r3, [r3, #1]
 8001e66:	021b      	lsls	r3, r3, #8
 8001e68:	b21b      	sxth	r3, r3
 8001e6a:	4313      	orrs	r3, r2
 8001e6c:	b21b      	sxth	r3, r3
 8001e6e:	b29b      	uxth	r3, r3
}
 8001e70:	0018      	movs	r0, r3
 8001e72:	46bd      	mov	sp, r7
 8001e74:	b002      	add	sp, #8
 8001e76:	bd80      	pop	{r7, pc}

08001e78 <USBhw_Init>:
// USB peripheral must be enabled before calling Init
// G0 specific: before enabling USB, set PWR_CR2_USV; no need to setup USB pins

// initialize USB peripheral
static void USBhw_Init(const struct usbdevice_ *usbd)
{
 8001e78:	b580      	push	{r7, lr}
 8001e7a:	b084      	sub	sp, #16
 8001e7c:	af00      	add	r7, sp, #0
 8001e7e:	6078      	str	r0, [r7, #4]
	USBh_TypeDef *usb = (USBh_TypeDef *)usbd->usb;
 8001e80:	687b      	ldr	r3, [r7, #4]
 8001e82:	681b      	ldr	r3, [r3, #0]
 8001e84:	60bb      	str	r3, [r7, #8]
	
	for (uint8_t i = 0; i < 200; i++)
 8001e86:	230f      	movs	r3, #15
 8001e88:	18fb      	adds	r3, r7, r3
 8001e8a:	2200      	movs	r2, #0
 8001e8c:	701a      	strb	r2, [r3, #0]
 8001e8e:	e008      	b.n	8001ea2 <USBhw_Init+0x2a>
		usb->CNTR = USB_CNTR_USBRST;	// clear PDWN (should wait 1 us on H5)
 8001e90:	68bb      	ldr	r3, [r7, #8]
 8001e92:	2201      	movs	r2, #1
 8001e94:	641a      	str	r2, [r3, #64]	@ 0x40
	for (uint8_t i = 0; i < 200; i++)
 8001e96:	210f      	movs	r1, #15
 8001e98:	187b      	adds	r3, r7, r1
 8001e9a:	781a      	ldrb	r2, [r3, #0]
 8001e9c:	187b      	adds	r3, r7, r1
 8001e9e:	3201      	adds	r2, #1
 8001ea0:	701a      	strb	r2, [r3, #0]
 8001ea2:	230f      	movs	r3, #15
 8001ea4:	18fb      	adds	r3, r7, r3
 8001ea6:	781b      	ldrb	r3, [r3, #0]
 8001ea8:	2bc7      	cmp	r3, #199	@ 0xc7
 8001eaa:	d9f1      	bls.n	8001e90 <USBhw_Init+0x18>
    // wait tStartup
    usb->CNTR = 0;	// release reset
 8001eac:	68bb      	ldr	r3, [r7, #8]
 8001eae:	2200      	movs	r2, #0
 8001eb0:	641a      	str	r2, [r3, #64]	@ 0x40
    usb->DADDR = 0;
 8001eb2:	68bb      	ldr	r3, [r7, #8]
 8001eb4:	2200      	movs	r2, #0
 8001eb6:	64da      	str	r2, [r3, #76]	@ 0x4c
    usb->ISTR = 0;
 8001eb8:	68bb      	ldr	r3, [r7, #8]
 8001eba:	2200      	movs	r2, #0
 8001ebc:	645a      	str	r2, [r3, #68]	@ 0x44
    usb->CNTR = USB_CNTR_RESETM;
 8001ebe:	68bb      	ldr	r3, [r7, #8]
 8001ec0:	2280      	movs	r2, #128	@ 0x80
 8001ec2:	00d2      	lsls	r2, r2, #3
 8001ec4:	641a      	str	r2, [r3, #64]	@ 0x40
    usb->BCDR |= USB_BCDR_DPPU;	// enable DP pull-up
 8001ec6:	68bb      	ldr	r3, [r7, #8]
 8001ec8:	6d9b      	ldr	r3, [r3, #88]	@ 0x58
 8001eca:	2280      	movs	r2, #128	@ 0x80
 8001ecc:	0212      	lsls	r2, r2, #8
 8001ece:	431a      	orrs	r2, r3
 8001ed0:	68bb      	ldr	r3, [r7, #8]
 8001ed2:	659a      	str	r2, [r3, #88]	@ 0x58
    NVIC_EnableIRQ((IRQn_Type)usbd->cfg->irqn);
 8001ed4:	687b      	ldr	r3, [r7, #4]
 8001ed6:	689b      	ldr	r3, [r3, #8]
 8001ed8:	781b      	ldrb	r3, [r3, #0]
 8001eda:	b25b      	sxtb	r3, r3
 8001edc:	0018      	movs	r0, r3
 8001ede:	f7ff ff7d 	bl	8001ddc <__NVIC_EnableIRQ>
}
 8001ee2:	46c0      	nop			@ (mov r8, r8)
 8001ee4:	46bd      	mov	sp, r7
 8001ee6:	b004      	add	sp, #16
 8001ee8:	bd80      	pop	{r7, pc}
	...

08001eec <USBhw_DeInit>:

static void USBhw_DeInit(const struct usbdevice_ *usbd)
{
 8001eec:	b580      	push	{r7, lr}
 8001eee:	b084      	sub	sp, #16
 8001ef0:	af00      	add	r7, sp, #0
 8001ef2:	6078      	str	r0, [r7, #4]
	USBh_TypeDef *usb = (USBh_TypeDef *)usbd->usb;
 8001ef4:	687b      	ldr	r3, [r7, #4]
 8001ef6:	681b      	ldr	r3, [r3, #0]
 8001ef8:	60fb      	str	r3, [r7, #12]

	NVIC_DisableIRQ((IRQn_Type)usbd->cfg->irqn);
 8001efa:	687b      	ldr	r3, [r7, #4]
 8001efc:	689b      	ldr	r3, [r3, #8]
 8001efe:	781b      	ldrb	r3, [r3, #0]
 8001f00:	b25b      	sxtb	r3, r3
 8001f02:	0018      	movs	r0, r3
 8001f04:	f7ff ff84 	bl	8001e10 <__NVIC_DisableIRQ>
    usb->BCDR &= ~USB_BCDR_DPPU;	// disable DP pull-up
 8001f08:	68fb      	ldr	r3, [r7, #12]
 8001f0a:	6d9b      	ldr	r3, [r3, #88]	@ 0x58
 8001f0c:	4a05      	ldr	r2, [pc, #20]	@ (8001f24 <USBhw_DeInit+0x38>)
 8001f0e:	401a      	ands	r2, r3
 8001f10:	68fb      	ldr	r3, [r7, #12]
 8001f12:	659a      	str	r2, [r3, #88]	@ 0x58
	usb->CNTR = USB_CNTR_USBRST | USB_CNTR_PDWN;	// set PDWN
 8001f14:	68fb      	ldr	r3, [r7, #12]
 8001f16:	2203      	movs	r2, #3
 8001f18:	641a      	str	r2, [r3, #64]	@ 0x40
}
 8001f1a:	46c0      	nop			@ (mov r8, r8)
 8001f1c:	46bd      	mov	sp, r7
 8001f1e:	b004      	add	sp, #16
 8001f20:	bd80      	pop	{r7, pc}
 8001f22:	46c0      	nop			@ (mov r8, r8)
 8001f24:	ffff7fff 	.word	0xffff7fff

08001f28 <SetRxNumBlock>:
		? ((block & 0x1f) + 1) * 32
		: (block & 0x1f) * 2;
}

static inline uint8_t SetRxNumBlock(uint16_t rxsize)
{
 8001f28:	b580      	push	{r7, lr}
 8001f2a:	b082      	sub	sp, #8
 8001f2c:	af00      	add	r7, sp, #0
 8001f2e:	0002      	movs	r2, r0
 8001f30:	1dbb      	adds	r3, r7, #6
 8001f32:	801a      	strh	r2, [r3, #0]
	return rxsize >= 64
		? 0x20 | (rxsize / 32 - 1)
		: (rxsize / 2);
 8001f34:	1dbb      	adds	r3, r7, #6
 8001f36:	881b      	ldrh	r3, [r3, #0]
 8001f38:	2b3f      	cmp	r3, #63	@ 0x3f
 8001f3a:	d90c      	bls.n	8001f56 <SetRxNumBlock+0x2e>
		? 0x20 | (rxsize / 32 - 1)
 8001f3c:	1dbb      	adds	r3, r7, #6
 8001f3e:	881b      	ldrh	r3, [r3, #0]
 8001f40:	095b      	lsrs	r3, r3, #5
 8001f42:	b29b      	uxth	r3, r3
 8001f44:	b2db      	uxtb	r3, r3
 8001f46:	3b01      	subs	r3, #1
 8001f48:	b2db      	uxtb	r3, r3
 8001f4a:	b25b      	sxtb	r3, r3
 8001f4c:	2220      	movs	r2, #32
 8001f4e:	4313      	orrs	r3, r2
 8001f50:	b25b      	sxtb	r3, r3
		: (rxsize / 2);
 8001f52:	b2db      	uxtb	r3, r3
 8001f54:	e004      	b.n	8001f60 <SetRxNumBlock+0x38>
 8001f56:	1dbb      	adds	r3, r7, #6
 8001f58:	881b      	ldrh	r3, [r3, #0]
 8001f5a:	085b      	lsrs	r3, r3, #1
 8001f5c:	b29b      	uxth	r3, r3
 8001f5e:	b2db      	uxtb	r3, r3
}
 8001f60:	0018      	movs	r0, r3
 8001f62:	46bd      	mov	sp, r7
 8001f64:	b002      	add	sp, #8
 8001f66:	bd80      	pop	{r7, pc}

08001f68 <USBhw_GetInEPSize>:

// G0 specific
// get IN endpoint size from USB registers
static uint16_t USBhw_GetInEPSize(const struct usbdevice_ *usbd, uint8_t epn)
{
 8001f68:	b580      	push	{r7, lr}
 8001f6a:	b084      	sub	sp, #16
 8001f6c:	af00      	add	r7, sp, #0
 8001f6e:	6078      	str	r0, [r7, #4]
 8001f70:	000a      	movs	r2, r1
 8001f72:	1cfb      	adds	r3, r7, #3
 8001f74:	701a      	strb	r2, [r3, #0]
	USBh_TypeDef *usb = (USBh_TypeDef *)usbd->usb;
 8001f76:	687b      	ldr	r3, [r7, #4]
 8001f78:	681b      	ldr	r3, [r3, #0]
 8001f7a:	60fb      	str	r3, [r7, #12]
	struct USB_BufDesc_ *bufdesc = &usb->BUFDESC[epn];
 8001f7c:	1cfb      	adds	r3, r7, #3
 8001f7e:	781b      	ldrb	r3, [r3, #0]
 8001f80:	22f0      	movs	r2, #240	@ 0xf0
 8001f82:	00d2      	lsls	r2, r2, #3
 8001f84:	4694      	mov	ip, r2
 8001f86:	4463      	add	r3, ip
 8001f88:	00db      	lsls	r3, r3, #3
 8001f8a:	68fa      	ldr	r2, [r7, #12]
 8001f8c:	18d3      	adds	r3, r2, r3
 8001f8e:	60bb      	str	r3, [r7, #8]

	return bufdesc->RxAddressCount.addr - bufdesc->TxAddressCount.addr;
 8001f90:	68bb      	ldr	r3, [r7, #8]
 8001f92:	685b      	ldr	r3, [r3, #4]
 8001f94:	b29a      	uxth	r2, r3
 8001f96:	68bb      	ldr	r3, [r7, #8]
 8001f98:	681b      	ldr	r3, [r3, #0]
 8001f9a:	b29b      	uxth	r3, r3
 8001f9c:	1ad3      	subs	r3, r2, r3
 8001f9e:	b29b      	uxth	r3, r3
}
 8001fa0:	0018      	movs	r0, r3
 8001fa2:	46bd      	mov	sp, r7
 8001fa4:	b004      	add	sp, #16
 8001fa6:	bd80      	pop	{r7, pc}

08001fa8 <SetEPRState>:
// change to USB_CHEP_REG_MASK defined in std header
#define USB_EPR_CFG	(USB_CHEP_ADDR | USB_EP_KIND | USB_EP_UTYPE | USB_CHEP_DEVADDR)
#define USB_EPR_FLAGS	(USB_EP_VTTX | USB_EP_VTRX | USB_CHEP_NAK | USB_CHEP_ERRTX | USB_CHEP_ERRRX)

static void SetEPRState(const struct usbdevice_ *usbd, uint8_t epaddr, uint32_t statemask, uint32_t newstate)
{
 8001fa8:	b580      	push	{r7, lr}
 8001faa:	b086      	sub	sp, #24
 8001fac:	af00      	add	r7, sp, #0
 8001fae:	60f8      	str	r0, [r7, #12]
 8001fb0:	607a      	str	r2, [r7, #4]
 8001fb2:	603b      	str	r3, [r7, #0]
 8001fb4:	200b      	movs	r0, #11
 8001fb6:	183b      	adds	r3, r7, r0
 8001fb8:	1c0a      	adds	r2, r1, #0
 8001fba:	701a      	strb	r2, [r3, #0]
	USBh_TypeDef *usb = (USBh_TypeDef *)usbd->usb;
 8001fbc:	68fb      	ldr	r3, [r7, #12]
 8001fbe:	681b      	ldr	r3, [r3, #0]
 8001fc0:	617b      	str	r3, [r7, #20]
    volatile uint32_t *epr = &usb->EPR[epaddr & EPNUMMSK];
 8001fc2:	183b      	adds	r3, r7, r0
 8001fc4:	781b      	ldrb	r3, [r3, #0]
 8001fc6:	2207      	movs	r2, #7
 8001fc8:	4013      	ands	r3, r2
 8001fca:	009b      	lsls	r3, r3, #2
 8001fcc:	697a      	ldr	r2, [r7, #20]
 8001fce:	18d3      	adds	r3, r2, r3
 8001fd0:	613b      	str	r3, [r7, #16]
    // keep config bits, write ones to toggle bits in statemask, don't reset w0c flags
    *epr = ((*epr & (USB_EPR_CFG | statemask)) ^ newstate) | USB_EPR_FLAGS;
 8001fd2:	693b      	ldr	r3, [r7, #16]
 8001fd4:	681b      	ldr	r3, [r3, #0]
 8001fd6:	687a      	ldr	r2, [r7, #4]
 8001fd8:	4906      	ldr	r1, [pc, #24]	@ (8001ff4 <SetEPRState+0x4c>)
 8001fda:	430a      	orrs	r2, r1
 8001fdc:	401a      	ands	r2, r3
 8001fde:	683b      	ldr	r3, [r7, #0]
 8001fe0:	4053      	eors	r3, r2
 8001fe2:	4a05      	ldr	r2, [pc, #20]	@ (8001ff8 <SetEPRState+0x50>)
 8001fe4:	431a      	orrs	r2, r3
 8001fe6:	693b      	ldr	r3, [r7, #16]
 8001fe8:	601a      	str	r2, [r3, #0]
}
 8001fea:	46c0      	nop			@ (mov r8, r8)
 8001fec:	46bd      	mov	sp, r7
 8001fee:	b006      	add	sp, #24
 8001ff0:	bd80      	pop	{r7, pc}
 8001ff2:	46c0      	nop			@ (mov r8, r8)
 8001ff4:	007f070f 	.word	0x007f070f
 8001ff8:	06808080 	.word	0x06808080

08001ffc <USBhw_ClrEPToggle>:

// clear data toggle - required by unstall request
static void USBhw_ClrEPToggle(const struct usbdevice_ *usbd, uint8_t epaddr)
{
 8001ffc:	b580      	push	{r7, lr}
 8001ffe:	b082      	sub	sp, #8
 8002000:	af00      	add	r7, sp, #0
 8002002:	6078      	str	r0, [r7, #4]
 8002004:	000a      	movs	r2, r1
 8002006:	1cfb      	adds	r3, r7, #3
 8002008:	701a      	strb	r2, [r3, #0]
	SetEPRState(usbd, epaddr, epaddr & EP_IS_IN ? USB_EP_DTOG_TX : USB_EP_DTOG_RX, 0);
 800200a:	1cfb      	adds	r3, r7, #3
 800200c:	781b      	ldrb	r3, [r3, #0]
 800200e:	b25b      	sxtb	r3, r3
 8002010:	2b00      	cmp	r3, #0
 8002012:	da01      	bge.n	8002018 <USBhw_ClrEPToggle+0x1c>
 8002014:	2240      	movs	r2, #64	@ 0x40
 8002016:	e001      	b.n	800201c <USBhw_ClrEPToggle+0x20>
 8002018:	2380      	movs	r3, #128	@ 0x80
 800201a:	01da      	lsls	r2, r3, #7
 800201c:	1cfb      	adds	r3, r7, #3
 800201e:	7819      	ldrb	r1, [r3, #0]
 8002020:	6878      	ldr	r0, [r7, #4]
 8002022:	2300      	movs	r3, #0
 8002024:	f7ff ffc0 	bl	8001fa8 <SetEPRState>
}
 8002028:	46c0      	nop			@ (mov r8, r8)
 800202a:	46bd      	mov	sp, r7
 800202c:	b002      	add	sp, #8
 800202e:	bd80      	pop	{r7, pc}

08002030 <USBhw_SetEPState>:

static void USBhw_SetEPState(const struct usbdevice_ *usbd, uint8_t epaddr, enum usb_epstate_ state)
{
 8002030:	b590      	push	{r4, r7, lr}
 8002032:	b083      	sub	sp, #12
 8002034:	af00      	add	r7, sp, #0
 8002036:	6078      	str	r0, [r7, #4]
 8002038:	0008      	movs	r0, r1
 800203a:	0011      	movs	r1, r2
 800203c:	1cfb      	adds	r3, r7, #3
 800203e:	1c02      	adds	r2, r0, #0
 8002040:	701a      	strb	r2, [r3, #0]
 8002042:	1cbb      	adds	r3, r7, #2
 8002044:	1c0a      	adds	r2, r1, #0
 8002046:	701a      	strb	r2, [r3, #0]
	if (epaddr & EP_IS_IN)	// In
 8002048:	1cfb      	adds	r3, r7, #3
 800204a:	781b      	ldrb	r3, [r3, #0]
 800204c:	b25b      	sxtb	r3, r3
 800204e:	2b00      	cmp	r3, #0
 8002050:	da0a      	bge.n	8002068 <USBhw_SetEPState+0x38>
		SetEPRState(usbd, epaddr, USB_EP_TX_STTX, USB_EPR_STATTX(state));
 8002052:	1cbb      	adds	r3, r7, #2
 8002054:	781b      	ldrb	r3, [r3, #0]
 8002056:	011a      	lsls	r2, r3, #4
 8002058:	1cfb      	adds	r3, r7, #3
 800205a:	7819      	ldrb	r1, [r3, #0]
 800205c:	6878      	ldr	r0, [r7, #4]
 800205e:	0013      	movs	r3, r2
 8002060:	2230      	movs	r2, #48	@ 0x30
 8002062:	f7ff ffa1 	bl	8001fa8 <SetEPRState>
	else	// Out
		SetEPRState(usbd, epaddr, USB_EP_RX_STRX, USB_EPR_STATRX(state));
}
 8002066:	e00a      	b.n	800207e <USBhw_SetEPState+0x4e>
		SetEPRState(usbd, epaddr, USB_EP_RX_STRX, USB_EPR_STATRX(state));
 8002068:	1cbb      	adds	r3, r7, #2
 800206a:	781b      	ldrb	r3, [r3, #0]
 800206c:	031c      	lsls	r4, r3, #12
 800206e:	23c0      	movs	r3, #192	@ 0xc0
 8002070:	019a      	lsls	r2, r3, #6
 8002072:	1cfb      	adds	r3, r7, #3
 8002074:	7819      	ldrb	r1, [r3, #0]
 8002076:	6878      	ldr	r0, [r7, #4]
 8002078:	0023      	movs	r3, r4
 800207a:	f7ff ff95 	bl	8001fa8 <SetEPRState>
}
 800207e:	46c0      	nop			@ (mov r8, r8)
 8002080:	46bd      	mov	sp, r7
 8002082:	b003      	add	sp, #12
 8002084:	bd90      	pop	{r4, r7, pc}

08002086 <USBhw_SetEPStall>:

static void USBhw_SetEPStall(const struct usbdevice_ *usbd, uint8_t epaddr)
{
 8002086:	b580      	push	{r7, lr}
 8002088:	b082      	sub	sp, #8
 800208a:	af00      	add	r7, sp, #0
 800208c:	6078      	str	r0, [r7, #4]
 800208e:	000a      	movs	r2, r1
 8002090:	1cfb      	adds	r3, r7, #3
 8002092:	701a      	strb	r2, [r3, #0]
	USBhw_SetEPState(usbd, epaddr, USB_EPSTATE_STALL);
 8002094:	1cfb      	adds	r3, r7, #3
 8002096:	7819      	ldrb	r1, [r3, #0]
 8002098:	687b      	ldr	r3, [r7, #4]
 800209a:	2201      	movs	r2, #1
 800209c:	0018      	movs	r0, r3
 800209e:	f7ff ffc7 	bl	8002030 <USBhw_SetEPState>
}
 80020a2:	46c0      	nop			@ (mov r8, r8)
 80020a4:	46bd      	mov	sp, r7
 80020a6:	b002      	add	sp, #8
 80020a8:	bd80      	pop	{r7, pc}

080020aa <USBhw_ClrEPStall>:

static void USBhw_ClrEPStall(const struct usbdevice_ *usbd, uint8_t epaddr)
{
 80020aa:	b580      	push	{r7, lr}
 80020ac:	b082      	sub	sp, #8
 80020ae:	af00      	add	r7, sp, #0
 80020b0:	6078      	str	r0, [r7, #4]
 80020b2:	000a      	movs	r2, r1
 80020b4:	1cfb      	adds	r3, r7, #3
 80020b6:	701a      	strb	r2, [r3, #0]
	USBhw_ClrEPToggle(usbd, epaddr);
 80020b8:	1cfb      	adds	r3, r7, #3
 80020ba:	781a      	ldrb	r2, [r3, #0]
 80020bc:	687b      	ldr	r3, [r7, #4]
 80020be:	0011      	movs	r1, r2
 80020c0:	0018      	movs	r0, r3
 80020c2:	f7ff ff9b 	bl	8001ffc <USBhw_ClrEPToggle>
	USBhw_SetEPState(usbd, epaddr, epaddr & EP_IS_IN ? USB_EPSTATE_NAK : USB_EPSTATE_VALID);	// ...
 80020c6:	1cfb      	adds	r3, r7, #3
 80020c8:	781b      	ldrb	r3, [r3, #0]
 80020ca:	b25b      	sxtb	r3, r3
 80020cc:	2b00      	cmp	r3, #0
 80020ce:	da01      	bge.n	80020d4 <USBhw_ClrEPStall+0x2a>
 80020d0:	2302      	movs	r3, #2
 80020d2:	e000      	b.n	80020d6 <USBhw_ClrEPStall+0x2c>
 80020d4:	2303      	movs	r3, #3
 80020d6:	1cfa      	adds	r2, r7, #3
 80020d8:	7811      	ldrb	r1, [r2, #0]
 80020da:	6878      	ldr	r0, [r7, #4]
 80020dc:	001a      	movs	r2, r3
 80020de:	f7ff ffa7 	bl	8002030 <USBhw_SetEPState>
}
 80020e2:	46c0      	nop			@ (mov r8, r8)
 80020e4:	46bd      	mov	sp, r7
 80020e6:	b002      	add	sp, #8
 80020e8:	bd80      	pop	{r7, pc}
	...

080020ec <USBhw_IsEPStalled>:

static bool USBhw_IsEPStalled(const struct usbdevice_ *usbd, uint8_t epaddr)
{
 80020ec:	b580      	push	{r7, lr}
 80020ee:	b084      	sub	sp, #16
 80020f0:	af00      	add	r7, sp, #0
 80020f2:	6078      	str	r0, [r7, #4]
 80020f4:	000a      	movs	r2, r1
 80020f6:	1cfb      	adds	r3, r7, #3
 80020f8:	701a      	strb	r2, [r3, #0]
	USBh_TypeDef *usb = (USBh_TypeDef *)usbd->usb;
 80020fa:	687b      	ldr	r3, [r7, #4]
 80020fc:	681b      	ldr	r3, [r3, #0]
 80020fe:	60fb      	str	r3, [r7, #12]
    volatile uint32_t *epr = &usb->EPR[epaddr & EPNUMMSK];
 8002100:	1cfb      	adds	r3, r7, #3
 8002102:	781b      	ldrb	r3, [r3, #0]
 8002104:	2207      	movs	r2, #7
 8002106:	4013      	ands	r3, r2
 8002108:	009b      	lsls	r3, r3, #2
 800210a:	68fa      	ldr	r2, [r7, #12]
 800210c:	18d3      	adds	r3, r2, r3
 800210e:	60bb      	str	r3, [r7, #8]
	if (epaddr & EP_IS_IN)	// In
 8002110:	1cfb      	adds	r3, r7, #3
 8002112:	781b      	ldrb	r3, [r3, #0]
 8002114:	b25b      	sxtb	r3, r3
 8002116:	2b00      	cmp	r3, #0
 8002118:	da08      	bge.n	800212c <USBhw_IsEPStalled+0x40>
		return (*epr & USB_CHEP_TX_STTX) == USB_EPR_STATTX(USB_EPSTATE_STALL);
 800211a:	68bb      	ldr	r3, [r7, #8]
 800211c:	681b      	ldr	r3, [r3, #0]
 800211e:	2230      	movs	r2, #48	@ 0x30
 8002120:	4013      	ands	r3, r2
 8002122:	3b10      	subs	r3, #16
 8002124:	425a      	negs	r2, r3
 8002126:	4153      	adcs	r3, r2
 8002128:	b2db      	uxtb	r3, r3
 800212a:	e00a      	b.n	8002142 <USBhw_IsEPStalled+0x56>
	else	// Out
		return (*epr & USB_CHEP_RX_STRX) == USB_EPR_STATRX(USB_EPSTATE_STALL);
 800212c:	68bb      	ldr	r3, [r7, #8]
 800212e:	681a      	ldr	r2, [r3, #0]
 8002130:	23c0      	movs	r3, #192	@ 0xc0
 8002132:	019b      	lsls	r3, r3, #6
 8002134:	4013      	ands	r3, r2
 8002136:	4a05      	ldr	r2, [pc, #20]	@ (800214c <USBhw_IsEPStalled+0x60>)
 8002138:	4694      	mov	ip, r2
 800213a:	4463      	add	r3, ip
 800213c:	425a      	negs	r2, r3
 800213e:	4153      	adcs	r3, r2
 8002140:	b2db      	uxtb	r3, r3
}
 8002142:	0018      	movs	r0, r3
 8002144:	46bd      	mov	sp, r7
 8002146:	b004      	add	sp, #16
 8002148:	bd80      	pop	{r7, pc}
 800214a:	46c0      	nop			@ (mov r8, r8)
 800214c:	fffff000 	.word	0xfffff000

08002150 <USBhw_EnableRx>:

static void USBhw_EnableRx(const struct usbdevice_ *usbd, uint8_t epn)
{
 8002150:	b580      	push	{r7, lr}
 8002152:	b082      	sub	sp, #8
 8002154:	af00      	add	r7, sp, #0
 8002156:	6078      	str	r0, [r7, #4]
 8002158:	000a      	movs	r2, r1
 800215a:	1cfb      	adds	r3, r7, #3
 800215c:	701a      	strb	r2, [r3, #0]
	USBhw_SetEPState(usbd, epn & EPNUMMSK, USB_EPSTATE_VALID);
 800215e:	1cfb      	adds	r3, r7, #3
 8002160:	781b      	ldrb	r3, [r3, #0]
 8002162:	2207      	movs	r2, #7
 8002164:	4013      	ands	r3, r2
 8002166:	b2d9      	uxtb	r1, r3
 8002168:	687b      	ldr	r3, [r7, #4]
 800216a:	2203      	movs	r2, #3
 800216c:	0018      	movs	r0, r3
 800216e:	f7ff ff5f 	bl	8002030 <USBhw_SetEPState>
}
 8002172:	46c0      	nop			@ (mov r8, r8)
 8002174:	46bd      	mov	sp, r7
 8002176:	b002      	add	sp, #8
 8002178:	bd80      	pop	{r7, pc}

0800217a <USBhw_EnableCtlSetup>:

static void USBhw_EnableCtlSetup(const struct usbdevice_ *usbd)
{
 800217a:	b580      	push	{r7, lr}
 800217c:	b082      	sub	sp, #8
 800217e:	af00      	add	r7, sp, #0
 8002180:	6078      	str	r0, [r7, #4]
	//USBhw_SetEPState(usbd, 0, USB_EPSTATE_NAK);
}
 8002182:	46c0      	nop			@ (mov r8, r8)
 8002184:	46bd      	mov	sp, r7
 8002186:	b002      	add	sp, #8
 8002188:	bd80      	pop	{r7, pc}

0800218a <reset_in_endpoints>:
// ordered by USB std
static const uint8_t eptype[] = {USBHW_EPTYPE_CTRL, USBHW_EPTYPE_ISO, USBHW_EPTYPE_BULK, USBHW_EPTYPE_INT};
#define USB_EPR_EPTYPE(a) ((eptype[a]) << 9)

static void reset_in_endpoints(const struct usbdevice_ *usbd)
{
 800218a:	b580      	push	{r7, lr}
 800218c:	b082      	sub	sp, #8
 800218e:	af00      	add	r7, sp, #0
 8002190:	6078      	str	r0, [r7, #4]
	memset(usbd->inep, 0, sizeof(struct epdata_) * usbd->cfg->numeppairs);
 8002192:	687b      	ldr	r3, [r7, #4]
 8002194:	6958      	ldr	r0, [r3, #20]
 8002196:	687b      	ldr	r3, [r7, #4]
 8002198:	689b      	ldr	r3, [r3, #8]
 800219a:	789b      	ldrb	r3, [r3, #2]
 800219c:	06db      	lsls	r3, r3, #27
 800219e:	0edb      	lsrs	r3, r3, #27
 80021a0:	b2db      	uxtb	r3, r3
 80021a2:	00db      	lsls	r3, r3, #3
 80021a4:	001a      	movs	r2, r3
 80021a6:	2100      	movs	r1, #0
 80021a8:	f000 fc84 	bl	8002ab4 <memset>
}
 80021ac:	46c0      	nop			@ (mov r8, r8)
 80021ae:	46bd      	mov	sp, r7
 80021b0:	b002      	add	sp, #8
 80021b2:	bd80      	pop	{r7, pc}

080021b4 <USBhw_Reset>:

// reset request - setup EP0
static void USBhw_Reset(const struct usbdevice_ *usbd)
{
 80021b4:	b5f0      	push	{r4, r5, r6, r7, lr}
 80021b6:	b089      	sub	sp, #36	@ 0x24
 80021b8:	af00      	add	r7, sp, #0
 80021ba:	6078      	str	r0, [r7, #4]
	USBh_TypeDef *usb = (USBh_TypeDef *)usbd->usb;
 80021bc:	687b      	ldr	r3, [r7, #4]
 80021be:	681b      	ldr	r3, [r3, #0]
 80021c0:	61fb      	str	r3, [r7, #28]
	struct USB_BufDesc_ *bufdesc = usb->BUFDESC;
 80021c2:	69fb      	ldr	r3, [r7, #28]
 80021c4:	22f0      	movs	r2, #240	@ 0xf0
 80021c6:	0192      	lsls	r2, r2, #6
 80021c8:	4694      	mov	ip, r2
 80021ca:	4463      	add	r3, ip
 80021cc:	61bb      	str	r3, [r7, #24]
	const struct usbdcfg_ *cfg = usbd->cfg;
 80021ce:	687b      	ldr	r3, [r7, #4]
 80021d0:	689b      	ldr	r3, [r3, #8]
 80021d2:	617b      	str	r3, [r7, #20]

	// buffer table starts at 0
    uint16_t addr = 0x40;	// H503 RefMan Fig. 510 cfg->numeppairs * 8;
 80021d4:	2512      	movs	r5, #18
 80021d6:	197b      	adds	r3, r7, r5
 80021d8:	2240      	movs	r2, #64	@ 0x40
 80021da:	801a      	strh	r2, [r3, #0]
	// setup and enable EP0
	bufdesc[0].TxAddressCount.v = addr;
 80021dc:	197b      	adds	r3, r7, r5
 80021de:	881a      	ldrh	r2, [r3, #0]
 80021e0:	69bb      	ldr	r3, [r7, #24]
 80021e2:	601a      	str	r2, [r3, #0]
	uint8_t ep0size = cfg->devdesc->bMaxPacketSize0;
 80021e4:	697b      	ldr	r3, [r7, #20]
 80021e6:	691a      	ldr	r2, [r3, #16]
 80021e8:	2011      	movs	r0, #17
 80021ea:	183b      	adds	r3, r7, r0
 80021ec:	79d2      	ldrb	r2, [r2, #7]
 80021ee:	701a      	strb	r2, [r3, #0]
	addr += ep0size;
 80021f0:	183b      	adds	r3, r7, r0
 80021f2:	781b      	ldrb	r3, [r3, #0]
 80021f4:	b299      	uxth	r1, r3
 80021f6:	197b      	adds	r3, r7, r5
 80021f8:	197a      	adds	r2, r7, r5
 80021fa:	8812      	ldrh	r2, [r2, #0]
 80021fc:	188a      	adds	r2, r1, r2
 80021fe:	801a      	strh	r2, [r3, #0]
	bufdesc[0].RxAddressCount.v = (union USB_BDesc_){.num_block = SetRxNumBlock(ep0size), .addr = addr, .count = CNT_INVALID}.v;
 8002200:	197b      	adds	r3, r7, r5
 8002202:	881b      	ldrh	r3, [r3, #0]
 8002204:	0c22      	lsrs	r2, r4, #16
 8002206:	0412      	lsls	r2, r2, #16
 8002208:	4313      	orrs	r3, r2
 800220a:	001c      	movs	r4, r3
 800220c:	4b1e      	ldr	r3, [pc, #120]	@ (8002288 <USBhw_Reset+0xd4>)
 800220e:	4323      	orrs	r3, r4
 8002210:	001c      	movs	r4, r3
 8002212:	0006      	movs	r6, r0
 8002214:	183b      	adds	r3, r7, r0
 8002216:	781b      	ldrb	r3, [r3, #0]
 8002218:	b29b      	uxth	r3, r3
 800221a:	0018      	movs	r0, r3
 800221c:	f7ff fe84 	bl	8001f28 <SetRxNumBlock>
 8002220:	0003      	movs	r3, r0
 8002222:	1c1a      	adds	r2, r3, #0
 8002224:	233f      	movs	r3, #63	@ 0x3f
 8002226:	4013      	ands	r3, r2
 8002228:	b2db      	uxtb	r3, r3
 800222a:	069b      	lsls	r3, r3, #26
 800222c:	01a2      	lsls	r2, r4, #6
 800222e:	0992      	lsrs	r2, r2, #6
 8002230:	4313      	orrs	r3, r2
 8002232:	001c      	movs	r4, r3
 8002234:	0022      	movs	r2, r4
 8002236:	69bb      	ldr	r3, [r7, #24]
 8002238:	605a      	str	r2, [r3, #4]
	addr += ep0size;
 800223a:	19bb      	adds	r3, r7, r6
 800223c:	781b      	ldrb	r3, [r3, #0]
 800223e:	b299      	uxth	r1, r3
 8002240:	197b      	adds	r3, r7, r5
 8002242:	197a      	adds	r2, r7, r5
 8002244:	8812      	ldrh	r2, [r2, #0]
 8002246:	188a      	adds	r2, r1, r2
 8002248:	801a      	strh	r2, [r3, #0]
    usb->ISTR = 0;
 800224a:	69fb      	ldr	r3, [r7, #28]
 800224c:	2200      	movs	r2, #0
 800224e:	645a      	str	r2, [r3, #68]	@ 0x44
    usb->DADDR = USB_DADDR_EF;
 8002250:	69fb      	ldr	r3, [r7, #28]
 8002252:	2280      	movs	r2, #128	@ 0x80
 8002254:	64da      	str	r2, [r3, #76]	@ 0x4c
    usb->CNTR = USB_CNTR_CTRM | USB_CNTR_RESETM | USB_CNTR_SUSPM | USB_CNTR_SOFM;
 8002256:	69fb      	ldr	r3, [r7, #28]
 8002258:	228e      	movs	r2, #142	@ 0x8e
 800225a:	0212      	lsls	r2, r2, #8
 800225c:	641a      	str	r2, [r3, #64]	@ 0x40
	usb->EPR[0] = USB_EPR_EPTYPE(0);// | USB_EPR_STATRX(USB_EPSTATE_VALID) | USB_EPR_STATTX(USB_EPSTATE_NAK);
 800225e:	2301      	movs	r3, #1
 8002260:	025a      	lsls	r2, r3, #9
 8002262:	69fb      	ldr	r3, [r7, #28]
 8002264:	601a      	str	r2, [r3, #0]
    uint32_t epstate = USB_EPR_STATRX(USB_EPSTATE_NAK) | USB_EPR_STATTX(USB_EPSTATE_NAK);
 8002266:	4b09      	ldr	r3, [pc, #36]	@ (800228c <USBhw_Reset+0xd8>)
 8002268:	60fb      	str	r3, [r7, #12]
	SetEPRState(usbd, 0, USB_EP_RX_STRX | USB_EP_TX_STTX | USB_EP_DTOG_TX | USB_EP_DTOG_RX, epstate);
 800226a:	68fb      	ldr	r3, [r7, #12]
 800226c:	4a08      	ldr	r2, [pc, #32]	@ (8002290 <USBhw_Reset+0xdc>)
 800226e:	6878      	ldr	r0, [r7, #4]
 8002270:	2100      	movs	r1, #0
 8002272:	f7ff fe99 	bl	8001fa8 <SetEPRState>
    reset_in_endpoints(usbd);
 8002276:	687b      	ldr	r3, [r7, #4]
 8002278:	0018      	movs	r0, r3
 800227a:	f7ff ff86 	bl	800218a <reset_in_endpoints>
}
 800227e:	46c0      	nop			@ (mov r8, r8)
 8002280:	46bd      	mov	sp, r7
 8002282:	b009      	add	sp, #36	@ 0x24
 8002284:	bdf0      	pop	{r4, r5, r6, r7, pc}
 8002286:	46c0      	nop			@ (mov r8, r8)
 8002288:	03ff0000 	.word	0x03ff0000
 800228c:	00002020 	.word	0x00002020
 8002290:	00007070 	.word	0x00007070

08002294 <epbufsize>:

// convert endpoint size to endpoint buffer size
static inline uint16_t epbufsize(uint16_t s)
{
 8002294:	b580      	push	{r7, lr}
 8002296:	b082      	sub	sp, #8
 8002298:	af00      	add	r7, sp, #0
 800229a:	0002      	movs	r2, r0
 800229c:	1dbb      	adds	r3, r7, #6
 800229e:	801a      	strh	r2, [r3, #0]
	return (s + 3) & ~3;
 80022a0:	1dbb      	adds	r3, r7, #6
 80022a2:	881b      	ldrh	r3, [r3, #0]
 80022a4:	3303      	adds	r3, #3
 80022a6:	b29b      	uxth	r3, r3
 80022a8:	2203      	movs	r2, #3
 80022aa:	4393      	bics	r3, r2
 80022ac:	b29b      	uxth	r3, r3
}
 80022ae:	0018      	movs	r0, r3
 80022b0:	46bd      	mov	sp, r7
 80022b2:	b002      	add	sp, #8
 80022b4:	bd80      	pop	{r7, pc}
	...

080022b8 <USBhw_SetCfg>:

// setup and enable app endpoints on set configuration request
static void USBhw_SetCfg(const struct usbdevice_ *usbd)
{
 80022b8:	b5f0      	push	{r4, r5, r6, r7, lr}
 80022ba:	b08d      	sub	sp, #52	@ 0x34
 80022bc:	af00      	add	r7, sp, #0
 80022be:	6078      	str	r0, [r7, #4]
	USBh_TypeDef *usb = (USBh_TypeDef *)usbd->usb;
 80022c0:	687b      	ldr	r3, [r7, #4]
 80022c2:	681b      	ldr	r3, [r3, #0]
 80022c4:	62bb      	str	r3, [r7, #40]	@ 0x28
	USBreg *epr = usb->EPR;
 80022c6:	6abb      	ldr	r3, [r7, #40]	@ 0x28
 80022c8:	627b      	str	r3, [r7, #36]	@ 0x24
	const struct usbdcfg_ *cfg = usbd->cfg;
 80022ca:	687b      	ldr	r3, [r7, #4]
 80022cc:	689b      	ldr	r3, [r3, #8]
 80022ce:	623b      	str	r3, [r7, #32]
    uint16_t addr = 0x40 /*cfg->numeppairs * 8*/ + cfg->devdesc->bMaxPacketSize0 * 2;
 80022d0:	6a3b      	ldr	r3, [r7, #32]
 80022d2:	691b      	ldr	r3, [r3, #16]
 80022d4:	79db      	ldrb	r3, [r3, #7]
 80022d6:	3320      	adds	r3, #32
 80022d8:	b29b      	uxth	r3, r3
 80022da:	222e      	movs	r2, #46	@ 0x2e
 80022dc:	18ba      	adds	r2, r7, r2
 80022de:	18db      	adds	r3, r3, r3
 80022e0:	8013      	strh	r3, [r2, #0]
	// enable app endpoints
	struct USB_BufDesc_ *bufdesc = usb->BUFDESC;
 80022e2:	6abb      	ldr	r3, [r7, #40]	@ 0x28
 80022e4:	22f0      	movs	r2, #240	@ 0xf0
 80022e6:	0192      	lsls	r2, r2, #6
 80022e8:	4694      	mov	ip, r2
 80022ea:	4463      	add	r3, ip
 80022ec:	61fb      	str	r3, [r7, #28]
    for (uint8_t i = 1; i < cfg->numeppairs; i++)
 80022ee:	232d      	movs	r3, #45	@ 0x2d
 80022f0:	18fb      	adds	r3, r7, r3
 80022f2:	2201      	movs	r2, #1
 80022f4:	701a      	strb	r2, [r3, #0]
 80022f6:	e0b7      	b.n	8002468 <USBhw_SetCfg+0x1b0>
	{
		bufdesc[i].TxAddressCount.v = addr;
 80022f8:	212d      	movs	r1, #45	@ 0x2d
 80022fa:	187b      	adds	r3, r7, r1
 80022fc:	781b      	ldrb	r3, [r3, #0]
 80022fe:	00db      	lsls	r3, r3, #3
 8002300:	69fa      	ldr	r2, [r7, #28]
 8002302:	18d3      	adds	r3, r2, r3
 8002304:	222e      	movs	r2, #46	@ 0x2e
 8002306:	18ba      	adds	r2, r7, r2
 8002308:	8812      	ldrh	r2, [r2, #0]
 800230a:	601a      	str	r2, [r3, #0]
    	const struct USBdesc_ep_ *ind = USBdev_GetEPDescriptor(usbd, i | EP_IS_IN);
 800230c:	187b      	adds	r3, r7, r1
 800230e:	781b      	ldrb	r3, [r3, #0]
 8002310:	2280      	movs	r2, #128	@ 0x80
 8002312:	4252      	negs	r2, r2
 8002314:	4313      	orrs	r3, r2
 8002316:	b2da      	uxtb	r2, r3
 8002318:	687b      	ldr	r3, [r7, #4]
 800231a:	0011      	movs	r1, r2
 800231c:	0018      	movs	r0, r3
 800231e:	f7ff fd1a 	bl	8001d56 <USBdev_GetEPDescriptor>
 8002322:	0003      	movs	r3, r0
 8002324:	61bb      	str	r3, [r7, #24]
		uint16_t txsize = ind ? epbufsize(getusb16(&ind->wMaxPacketSize)) : 0;
 8002326:	69bb      	ldr	r3, [r7, #24]
 8002328:	2b00      	cmp	r3, #0
 800232a:	d00b      	beq.n	8002344 <USBhw_SetCfg+0x8c>
 800232c:	69bb      	ldr	r3, [r7, #24]
 800232e:	3304      	adds	r3, #4
 8002330:	0018      	movs	r0, r3
 8002332:	f7ff fd8f 	bl	8001e54 <getusb16>
 8002336:	0003      	movs	r3, r0
 8002338:	0018      	movs	r0, r3
 800233a:	f7ff ffab 	bl	8002294 <epbufsize>
 800233e:	0003      	movs	r3, r0
 8002340:	001a      	movs	r2, r3
 8002342:	e000      	b.n	8002346 <USBhw_SetCfg+0x8e>
 8002344:	2200      	movs	r2, #0
 8002346:	2016      	movs	r0, #22
 8002348:	183b      	adds	r3, r7, r0
 800234a:	801a      	strh	r2, [r3, #0]
		addr += txsize;
 800234c:	222e      	movs	r2, #46	@ 0x2e
 800234e:	18bb      	adds	r3, r7, r2
 8002350:	18b9      	adds	r1, r7, r2
 8002352:	183a      	adds	r2, r7, r0
 8002354:	8809      	ldrh	r1, [r1, #0]
 8002356:	8812      	ldrh	r2, [r2, #0]
 8002358:	188a      	adds	r2, r1, r2
 800235a:	801a      	strh	r2, [r3, #0]
    	const struct USBdesc_ep_ *outd = USBdev_GetEPDescriptor(usbd, i);
 800235c:	232d      	movs	r3, #45	@ 0x2d
 800235e:	18fb      	adds	r3, r7, r3
 8002360:	781a      	ldrb	r2, [r3, #0]
 8002362:	687b      	ldr	r3, [r7, #4]
 8002364:	0011      	movs	r1, r2
 8002366:	0018      	movs	r0, r3
 8002368:	f7ff fcf5 	bl	8001d56 <USBdev_GetEPDescriptor>
 800236c:	0003      	movs	r3, r0
 800236e:	613b      	str	r3, [r7, #16]
		uint16_t rxsize = outd ? epbufsize(getusb16(&outd->wMaxPacketSize)) : 0;
 8002370:	693b      	ldr	r3, [r7, #16]
 8002372:	2b00      	cmp	r3, #0
 8002374:	d00b      	beq.n	800238e <USBhw_SetCfg+0xd6>
 8002376:	693b      	ldr	r3, [r7, #16]
 8002378:	3304      	adds	r3, #4
 800237a:	0018      	movs	r0, r3
 800237c:	f7ff fd6a 	bl	8001e54 <getusb16>
 8002380:	0003      	movs	r3, r0
 8002382:	0018      	movs	r0, r3
 8002384:	f7ff ff86 	bl	8002294 <epbufsize>
 8002388:	0003      	movs	r3, r0
 800238a:	001a      	movs	r2, r3
 800238c:	e000      	b.n	8002390 <USBhw_SetCfg+0xd8>
 800238e:	2200      	movs	r2, #0
 8002390:	250e      	movs	r5, #14
 8002392:	197b      	adds	r3, r7, r5
 8002394:	801a      	strh	r2, [r3, #0]
		// do not remove .v from the line below!
		bufdesc[i].RxAddressCount.v = (union USB_BDesc_){.num_block = SetRxNumBlock(rxsize), .addr = addr, .count = CNT_INVALID}.v;
 8002396:	262e      	movs	r6, #46	@ 0x2e
 8002398:	19bb      	adds	r3, r7, r6
 800239a:	881b      	ldrh	r3, [r3, #0]
 800239c:	0c22      	lsrs	r2, r4, #16
 800239e:	0412      	lsls	r2, r2, #16
 80023a0:	4313      	orrs	r3, r2
 80023a2:	001c      	movs	r4, r3
 80023a4:	4b39      	ldr	r3, [pc, #228]	@ (800248c <USBhw_SetCfg+0x1d4>)
 80023a6:	4323      	orrs	r3, r4
 80023a8:	001c      	movs	r4, r3
 80023aa:	197b      	adds	r3, r7, r5
 80023ac:	881b      	ldrh	r3, [r3, #0]
 80023ae:	0018      	movs	r0, r3
 80023b0:	f7ff fdba 	bl	8001f28 <SetRxNumBlock>
 80023b4:	0003      	movs	r3, r0
 80023b6:	1c1a      	adds	r2, r3, #0
 80023b8:	233f      	movs	r3, #63	@ 0x3f
 80023ba:	4013      	ands	r3, r2
 80023bc:	b2db      	uxtb	r3, r3
 80023be:	069b      	lsls	r3, r3, #26
 80023c0:	01a2      	lsls	r2, r4, #6
 80023c2:	0992      	lsrs	r2, r2, #6
 80023c4:	4313      	orrs	r3, r2
 80023c6:	001c      	movs	r4, r3
 80023c8:	202d      	movs	r0, #45	@ 0x2d
 80023ca:	183b      	adds	r3, r7, r0
 80023cc:	781b      	ldrb	r3, [r3, #0]
 80023ce:	00db      	lsls	r3, r3, #3
 80023d0:	69fa      	ldr	r2, [r7, #28]
 80023d2:	18d3      	adds	r3, r2, r3
 80023d4:	0022      	movs	r2, r4
 80023d6:	605a      	str	r2, [r3, #4]
        addr += rxsize;
 80023d8:	19bb      	adds	r3, r7, r6
 80023da:	19b9      	adds	r1, r7, r6
 80023dc:	197a      	adds	r2, r7, r5
 80023de:	8809      	ldrh	r1, [r1, #0]
 80023e0:	8812      	ldrh	r2, [r2, #0]
 80023e2:	188a      	adds	r2, r1, r2
 80023e4:	801a      	strh	r2, [r3, #0]

//        epr[i] = i | USB_EPR_EPTYPE((ind ? ind->bmAttributes : 0) | (outd ? outd->bmAttributes : 0))
//			| (rxsize && usbd->outep[i].ptr ? USB_EPR_STATRX(USB_EPSTATE_VALID) : USB_EPR_STATRX(USB_EPSTATE_NAK))
//			| USB_EPR_STATTX(USB_EPSTATE_NAK);

        epr[i] = i | USB_EPR_EPTYPE((ind ? ind->bmAttributes : 0) | (outd ? outd->bmAttributes : 0));
 80023e6:	183b      	adds	r3, r7, r0
 80023e8:	781a      	ldrb	r2, [r3, #0]
 80023ea:	69bb      	ldr	r3, [r7, #24]
 80023ec:	2b00      	cmp	r3, #0
 80023ee:	d003      	beq.n	80023f8 <USBhw_SetCfg+0x140>
 80023f0:	69bb      	ldr	r3, [r7, #24]
 80023f2:	78db      	ldrb	r3, [r3, #3]
 80023f4:	0019      	movs	r1, r3
 80023f6:	e000      	b.n	80023fa <USBhw_SetCfg+0x142>
 80023f8:	2100      	movs	r1, #0
 80023fa:	693b      	ldr	r3, [r7, #16]
 80023fc:	2b00      	cmp	r3, #0
 80023fe:	d002      	beq.n	8002406 <USBhw_SetCfg+0x14e>
 8002400:	693b      	ldr	r3, [r7, #16]
 8002402:	78db      	ldrb	r3, [r3, #3]
 8002404:	e000      	b.n	8002408 <USBhw_SetCfg+0x150>
 8002406:	2300      	movs	r3, #0
 8002408:	430b      	orrs	r3, r1
 800240a:	4921      	ldr	r1, [pc, #132]	@ (8002490 <USBhw_SetCfg+0x1d8>)
 800240c:	5ccb      	ldrb	r3, [r1, r3]
 800240e:	025b      	lsls	r3, r3, #9
 8002410:	431a      	orrs	r2, r3
 8002412:	0011      	movs	r1, r2
 8002414:	202d      	movs	r0, #45	@ 0x2d
 8002416:	183b      	adds	r3, r7, r0
 8002418:	781b      	ldrb	r3, [r3, #0]
 800241a:	009b      	lsls	r3, r3, #2
 800241c:	6a7a      	ldr	r2, [r7, #36]	@ 0x24
 800241e:	18d3      	adds	r3, r2, r3
 8002420:	000a      	movs	r2, r1
 8002422:	601a      	str	r2, [r3, #0]
        uint32_t epstate = (rxsize && usbd->outep[i].ptr ? USB_EPR_STATRX(USB_EPSTATE_VALID) : USB_EPR_STATRX(USB_EPSTATE_NAK))
			| USB_EPR_STATTX(USB_EPSTATE_NAK);
 8002424:	230e      	movs	r3, #14
 8002426:	18fb      	adds	r3, r7, r3
 8002428:	881b      	ldrh	r3, [r3, #0]
 800242a:	2b00      	cmp	r3, #0
 800242c:	d00a      	beq.n	8002444 <USBhw_SetCfg+0x18c>
        uint32_t epstate = (rxsize && usbd->outep[i].ptr ? USB_EPR_STATRX(USB_EPSTATE_VALID) : USB_EPR_STATRX(USB_EPSTATE_NAK))
 800242e:	687b      	ldr	r3, [r7, #4]
 8002430:	691a      	ldr	r2, [r3, #16]
 8002432:	183b      	adds	r3, r7, r0
 8002434:	781b      	ldrb	r3, [r3, #0]
 8002436:	00db      	lsls	r3, r3, #3
 8002438:	18d3      	adds	r3, r2, r3
 800243a:	681b      	ldr	r3, [r3, #0]
 800243c:	2b00      	cmp	r3, #0
 800243e:	d001      	beq.n	8002444 <USBhw_SetCfg+0x18c>
			| USB_EPR_STATTX(USB_EPSTATE_NAK);
 8002440:	4b14      	ldr	r3, [pc, #80]	@ (8002494 <USBhw_SetCfg+0x1dc>)
 8002442:	e000      	b.n	8002446 <USBhw_SetCfg+0x18e>
 8002444:	4b14      	ldr	r3, [pc, #80]	@ (8002498 <USBhw_SetCfg+0x1e0>)
        uint32_t epstate = (rxsize && usbd->outep[i].ptr ? USB_EPR_STATRX(USB_EPSTATE_VALID) : USB_EPR_STATRX(USB_EPSTATE_NAK))
 8002446:	60bb      	str	r3, [r7, #8]
		SetEPRState(usbd, i, USB_EP_RX_STRX | USB_EP_TX_STTX | USB_EP_DTOG_TX | USB_EP_DTOG_RX, epstate);
 8002448:	68ba      	ldr	r2, [r7, #8]
 800244a:	4d14      	ldr	r5, [pc, #80]	@ (800249c <USBhw_SetCfg+0x1e4>)
 800244c:	262d      	movs	r6, #45	@ 0x2d
 800244e:	19bb      	adds	r3, r7, r6
 8002450:	7819      	ldrb	r1, [r3, #0]
 8002452:	6878      	ldr	r0, [r7, #4]
 8002454:	0013      	movs	r3, r2
 8002456:	002a      	movs	r2, r5
 8002458:	f7ff fda6 	bl	8001fa8 <SetEPRState>
    for (uint8_t i = 1; i < cfg->numeppairs; i++)
 800245c:	0031      	movs	r1, r6
 800245e:	187b      	adds	r3, r7, r1
 8002460:	781a      	ldrb	r2, [r3, #0]
 8002462:	187b      	adds	r3, r7, r1
 8002464:	3201      	adds	r2, #1
 8002466:	701a      	strb	r2, [r3, #0]
 8002468:	6a3b      	ldr	r3, [r7, #32]
 800246a:	789b      	ldrb	r3, [r3, #2]
 800246c:	06db      	lsls	r3, r3, #27
 800246e:	0edb      	lsrs	r3, r3, #27
 8002470:	b2db      	uxtb	r3, r3
 8002472:	001a      	movs	r2, r3
 8002474:	232d      	movs	r3, #45	@ 0x2d
 8002476:	18fb      	adds	r3, r7, r3
 8002478:	781b      	ldrb	r3, [r3, #0]
 800247a:	4293      	cmp	r3, r2
 800247c:	d200      	bcs.n	8002480 <USBhw_SetCfg+0x1c8>
 800247e:	e73b      	b.n	80022f8 <USBhw_SetCfg+0x40>
	}
    EVTMON('C');
}
 8002480:	46c0      	nop			@ (mov r8, r8)
 8002482:	46c0      	nop			@ (mov r8, r8)
 8002484:	46bd      	mov	sp, r7
 8002486:	b00d      	add	sp, #52	@ 0x34
 8002488:	bdf0      	pop	{r4, r5, r6, r7, pc}
 800248a:	46c0      	nop			@ (mov r8, r8)
 800248c:	03ff0000 	.word	0x03ff0000
 8002490:	08002e08 	.word	0x08002e08
 8002494:	00003020 	.word	0x00003020
 8002498:	00002020 	.word	0x00002020
 800249c:	00007070 	.word	0x00007070

080024a0 <USBhw_ResetCfg>:

// disable app endpoints on set configuration 0 request
static void USBhw_ResetCfg(const struct usbdevice_ *usbd)
{
 80024a0:	b5b0      	push	{r4, r5, r7, lr}
 80024a2:	b084      	sub	sp, #16
 80024a4:	af00      	add	r7, sp, #0
 80024a6:	6078      	str	r0, [r7, #4]
	const struct usbdcfg_ *cfg = usbd->cfg;
 80024a8:	687b      	ldr	r3, [r7, #4]
 80024aa:	689b      	ldr	r3, [r3, #8]
 80024ac:	60bb      	str	r3, [r7, #8]
	// disable app endpoints
    for (uint8_t i = 1; i < cfg->numeppairs; i++)
 80024ae:	230f      	movs	r3, #15
 80024b0:	18fb      	adds	r3, r7, r3
 80024b2:	2201      	movs	r2, #1
 80024b4:	701a      	strb	r2, [r3, #0]
 80024b6:	e00e      	b.n	80024d6 <USBhw_ResetCfg+0x36>
	{
		SetEPRState(usbd, i, USB_EP_RX_STRX | USB_EP_TX_STTX | USB_EP_DTOG_TX | USB_EP_DTOG_RX,
 80024b8:	4c10      	ldr	r4, [pc, #64]	@ (80024fc <USBhw_ResetCfg+0x5c>)
 80024ba:	4a11      	ldr	r2, [pc, #68]	@ (8002500 <USBhw_ResetCfg+0x60>)
 80024bc:	250f      	movs	r5, #15
 80024be:	197b      	adds	r3, r7, r5
 80024c0:	7819      	ldrb	r1, [r3, #0]
 80024c2:	6878      	ldr	r0, [r7, #4]
 80024c4:	0023      	movs	r3, r4
 80024c6:	f7ff fd6f 	bl	8001fa8 <SetEPRState>
    for (uint8_t i = 1; i < cfg->numeppairs; i++)
 80024ca:	0029      	movs	r1, r5
 80024cc:	187b      	adds	r3, r7, r1
 80024ce:	781a      	ldrb	r2, [r3, #0]
 80024d0:	187b      	adds	r3, r7, r1
 80024d2:	3201      	adds	r2, #1
 80024d4:	701a      	strb	r2, [r3, #0]
 80024d6:	68bb      	ldr	r3, [r7, #8]
 80024d8:	789b      	ldrb	r3, [r3, #2]
 80024da:	06db      	lsls	r3, r3, #27
 80024dc:	0edb      	lsrs	r3, r3, #27
 80024de:	b2db      	uxtb	r3, r3
 80024e0:	001a      	movs	r2, r3
 80024e2:	230f      	movs	r3, #15
 80024e4:	18fb      	adds	r3, r7, r3
 80024e6:	781b      	ldrb	r3, [r3, #0]
 80024e8:	4293      	cmp	r3, r2
 80024ea:	d3e5      	bcc.n	80024b8 <USBhw_ResetCfg+0x18>
			USB_EPR_STATRX(USB_EPSTATE_NAK) | USB_EPR_STATTX(USB_EPSTATE_NAK));
	}
    reset_in_endpoints(usbd);
 80024ec:	687b      	ldr	r3, [r7, #4]
 80024ee:	0018      	movs	r0, r3
 80024f0:	f7ff fe4b 	bl	800218a <reset_in_endpoints>
}
 80024f4:	46c0      	nop			@ (mov r8, r8)
 80024f6:	46bd      	mov	sp, r7
 80024f8:	b004      	add	sp, #16
 80024fa:	bdb0      	pop	{r4, r5, r7, pc}
 80024fc:	00002020 	.word	0x00002020
 8002500:	00007070 	.word	0x00007070

08002504 <USBhw_WriteTxData>:

// write data packet to be sent
static void USBhw_WriteTxData(const struct usbdevice_ *usbd, uint8_t epn)
{
 8002504:	b5b0      	push	{r4, r5, r7, lr}
 8002506:	b08a      	sub	sp, #40	@ 0x28
 8002508:	af00      	add	r7, sp, #0
 800250a:	6078      	str	r0, [r7, #4]
 800250c:	000a      	movs	r2, r1
 800250e:	1cfb      	adds	r3, r7, #3
 8002510:	701a      	strb	r2, [r3, #0]
	USBh_TypeDef *usb = (USBh_TypeDef *)usbd->usb;
 8002512:	687b      	ldr	r3, [r7, #4]
 8002514:	681b      	ldr	r3, [r3, #0]
 8002516:	617b      	str	r3, [r7, #20]
	struct epdata_ *epd = &usbd->inep[epn];
 8002518:	687b      	ldr	r3, [r7, #4]
 800251a:	695a      	ldr	r2, [r3, #20]
 800251c:	1cfb      	adds	r3, r7, #3
 800251e:	781b      	ldrb	r3, [r3, #0]
 8002520:	00db      	lsls	r3, r3, #3
 8002522:	18d3      	adds	r3, r2, r3
 8002524:	613b      	str	r3, [r7, #16]
	uint16_t epsize = USBhw_GetInEPSize(usbd, epn);
 8002526:	250e      	movs	r5, #14
 8002528:	197c      	adds	r4, r7, r5
 800252a:	1cfb      	adds	r3, r7, #3
 800252c:	781a      	ldrb	r2, [r3, #0]
 800252e:	687b      	ldr	r3, [r7, #4]
 8002530:	0011      	movs	r1, r2
 8002532:	0018      	movs	r0, r3
 8002534:	f7ff fd18 	bl	8001f68 <USBhw_GetInEPSize>
 8002538:	0003      	movs	r3, r0
 800253a:	8023      	strh	r3, [r4, #0]
	uint16_t bcount = MIN(epd->count, epsize);
 800253c:	693b      	ldr	r3, [r7, #16]
 800253e:	8899      	ldrh	r1, [r3, #4]
 8002540:	2326      	movs	r3, #38	@ 0x26
 8002542:	18fa      	adds	r2, r7, r3
 8002544:	197b      	adds	r3, r7, r5
 8002546:	1c0c      	adds	r4, r1, #0
 8002548:	881b      	ldrh	r3, [r3, #0]
 800254a:	b298      	uxth	r0, r3
 800254c:	b2a1      	uxth	r1, r4
 800254e:	4288      	cmp	r0, r1
 8002550:	d900      	bls.n	8002554 <USBhw_WriteTxData+0x50>
 8002552:	1c23      	adds	r3, r4, #0
 8002554:	8013      	strh	r3, [r2, #0]
	usb->BUFDESC[epn].TxAddressCount.v = (union USB_BDesc_){.count = bcount, .addr = usb->BUFDESC[epn].TxAddressCount.addr}.v;
 8002556:	2300      	movs	r3, #0
 8002558:	1cfa      	adds	r2, r7, #3
 800255a:	7811      	ldrb	r1, [r2, #0]
 800255c:	697a      	ldr	r2, [r7, #20]
 800255e:	20f0      	movs	r0, #240	@ 0xf0
 8002560:	00c0      	lsls	r0, r0, #3
 8002562:	4684      	mov	ip, r0
 8002564:	4461      	add	r1, ip
 8002566:	00c9      	lsls	r1, r1, #3
 8002568:	588a      	ldr	r2, [r1, r2]
 800256a:	b292      	uxth	r2, r2
 800256c:	0c1b      	lsrs	r3, r3, #16
 800256e:	041b      	lsls	r3, r3, #16
 8002570:	4313      	orrs	r3, r2
 8002572:	2026      	movs	r0, #38	@ 0x26
 8002574:	183a      	adds	r2, r7, r0
 8002576:	8812      	ldrh	r2, [r2, #0]
 8002578:	0592      	lsls	r2, r2, #22
 800257a:	0d92      	lsrs	r2, r2, #22
 800257c:	b292      	uxth	r2, r2
 800257e:	0592      	lsls	r2, r2, #22
 8002580:	0d92      	lsrs	r2, r2, #22
 8002582:	0412      	lsls	r2, r2, #16
 8002584:	494d      	ldr	r1, [pc, #308]	@ (80026bc <USBhw_WriteTxData+0x1b8>)
 8002586:	400b      	ands	r3, r1
 8002588:	4313      	orrs	r3, r2
 800258a:	1cfa      	adds	r2, r7, #3
 800258c:	7812      	ldrb	r2, [r2, #0]
 800258e:	0019      	movs	r1, r3
 8002590:	697b      	ldr	r3, [r7, #20]
 8002592:	24f0      	movs	r4, #240	@ 0xf0
 8002594:	00e4      	lsls	r4, r4, #3
 8002596:	46a4      	mov	ip, r4
 8002598:	4462      	add	r2, ip
 800259a:	00d2      	lsls	r2, r2, #3
 800259c:	50d1      	str	r1, [r2, r3]

	if (bcount)
 800259e:	183b      	adds	r3, r7, r0
 80025a0:	881b      	ldrh	r3, [r3, #0]
 80025a2:	2b00      	cmp	r3, #0
 80025a4:	d100      	bne.n	80025a8 <USBhw_WriteTxData+0xa4>
 80025a6:	e084      	b.n	80026b2 <USBhw_WriteTxData+0x1ae>
	{
		epd->count -= bcount;
 80025a8:	693b      	ldr	r3, [r7, #16]
 80025aa:	889a      	ldrh	r2, [r3, #4]
 80025ac:	183b      	adds	r3, r7, r0
 80025ae:	881b      	ldrh	r3, [r3, #0]
 80025b0:	1ad3      	subs	r3, r2, r3
 80025b2:	b29a      	uxth	r2, r3
 80025b4:	693b      	ldr	r3, [r7, #16]
 80025b6:	809a      	strh	r2, [r3, #4]
		volatile uint32_t *dest = &usb->PMA[(usb->BUFDESC[epn].TxAddressCount.v & 0xffff) / 4];
 80025b8:	1cfb      	adds	r3, r7, #3
 80025ba:	781a      	ldrb	r2, [r3, #0]
 80025bc:	697b      	ldr	r3, [r7, #20]
 80025be:	21f0      	movs	r1, #240	@ 0xf0
 80025c0:	00c9      	lsls	r1, r1, #3
 80025c2:	468c      	mov	ip, r1
 80025c4:	4462      	add	r2, ip
 80025c6:	00d2      	lsls	r2, r2, #3
 80025c8:	58d3      	ldr	r3, [r2, r3]
 80025ca:	041b      	lsls	r3, r3, #16
 80025cc:	0c1b      	lsrs	r3, r3, #16
 80025ce:	089b      	lsrs	r3, r3, #2
 80025d0:	22f0      	movs	r2, #240	@ 0xf0
 80025d2:	0112      	lsls	r2, r2, #4
 80025d4:	4694      	mov	ip, r2
 80025d6:	4463      	add	r3, ip
 80025d8:	009b      	lsls	r3, r3, #2
 80025da:	697a      	ldr	r2, [r7, #20]
 80025dc:	18d3      	adds	r3, r2, r3
 80025de:	623b      	str	r3, [r7, #32]
		const uint8_t *src = epd->ptr;
 80025e0:	693b      	ldr	r3, [r7, #16]
 80025e2:	681b      	ldr	r3, [r3, #0]
 80025e4:	61fb      	str	r3, [r7, #28]
		while (bcount > 3)
 80025e6:	e02a      	b.n	800263e <USBhw_WriteTxData+0x13a>
		{
			uint32_t v = *src++;
 80025e8:	69fb      	ldr	r3, [r7, #28]
 80025ea:	1c5a      	adds	r2, r3, #1
 80025ec:	61fa      	str	r2, [r7, #28]
 80025ee:	781b      	ldrb	r3, [r3, #0]
 80025f0:	60bb      	str	r3, [r7, #8]
			v |= *src++ << 8;
 80025f2:	69fb      	ldr	r3, [r7, #28]
 80025f4:	1c5a      	adds	r2, r3, #1
 80025f6:	61fa      	str	r2, [r7, #28]
 80025f8:	781b      	ldrb	r3, [r3, #0]
 80025fa:	021b      	lsls	r3, r3, #8
 80025fc:	001a      	movs	r2, r3
 80025fe:	68bb      	ldr	r3, [r7, #8]
 8002600:	4313      	orrs	r3, r2
 8002602:	60bb      	str	r3, [r7, #8]
			v |= *src++ << 16;
 8002604:	69fb      	ldr	r3, [r7, #28]
 8002606:	1c5a      	adds	r2, r3, #1
 8002608:	61fa      	str	r2, [r7, #28]
 800260a:	781b      	ldrb	r3, [r3, #0]
 800260c:	041b      	lsls	r3, r3, #16
 800260e:	001a      	movs	r2, r3
 8002610:	68bb      	ldr	r3, [r7, #8]
 8002612:	4313      	orrs	r3, r2
 8002614:	60bb      	str	r3, [r7, #8]
			v |= *src++ << 24;
 8002616:	69fb      	ldr	r3, [r7, #28]
 8002618:	1c5a      	adds	r2, r3, #1
 800261a:	61fa      	str	r2, [r7, #28]
 800261c:	781b      	ldrb	r3, [r3, #0]
 800261e:	061b      	lsls	r3, r3, #24
 8002620:	001a      	movs	r2, r3
 8002622:	68bb      	ldr	r3, [r7, #8]
 8002624:	4313      	orrs	r3, r2
 8002626:	60bb      	str	r3, [r7, #8]
			*dest++ = v;
 8002628:	6a3b      	ldr	r3, [r7, #32]
 800262a:	1d1a      	adds	r2, r3, #4
 800262c:	623a      	str	r2, [r7, #32]
 800262e:	68ba      	ldr	r2, [r7, #8]
 8002630:	601a      	str	r2, [r3, #0]
			bcount -= 4;
 8002632:	2226      	movs	r2, #38	@ 0x26
 8002634:	18bb      	adds	r3, r7, r2
 8002636:	18ba      	adds	r2, r7, r2
 8002638:	8812      	ldrh	r2, [r2, #0]
 800263a:	3a04      	subs	r2, #4
 800263c:	801a      	strh	r2, [r3, #0]
		while (bcount > 3)
 800263e:	2126      	movs	r1, #38	@ 0x26
 8002640:	187b      	adds	r3, r7, r1
 8002642:	881b      	ldrh	r3, [r3, #0]
 8002644:	2b03      	cmp	r3, #3
 8002646:	d8cf      	bhi.n	80025e8 <USBhw_WriteTxData+0xe4>
		}
		if (bcount)
 8002648:	187b      	adds	r3, r7, r1
 800264a:	881b      	ldrh	r3, [r3, #0]
 800264c:	2b00      	cmp	r3, #0
 800264e:	d02d      	beq.n	80026ac <USBhw_WriteTxData+0x1a8>
		{
			uint32_t v = *src++;
 8002650:	69fb      	ldr	r3, [r7, #28]
 8002652:	1c5a      	adds	r2, r3, #1
 8002654:	61fa      	str	r2, [r7, #28]
 8002656:	781b      	ldrb	r3, [r3, #0]
 8002658:	61bb      	str	r3, [r7, #24]
			if (--bcount)
 800265a:	187b      	adds	r3, r7, r1
 800265c:	187a      	adds	r2, r7, r1
 800265e:	8812      	ldrh	r2, [r2, #0]
 8002660:	3a01      	subs	r2, #1
 8002662:	801a      	strh	r2, [r3, #0]
 8002664:	187b      	adds	r3, r7, r1
 8002666:	881b      	ldrh	r3, [r3, #0]
 8002668:	2b00      	cmp	r3, #0
 800266a:	d01a      	beq.n	80026a2 <USBhw_WriteTxData+0x19e>
			{
				v |= *src++ << 8;
 800266c:	69fb      	ldr	r3, [r7, #28]
 800266e:	1c5a      	adds	r2, r3, #1
 8002670:	61fa      	str	r2, [r7, #28]
 8002672:	781b      	ldrb	r3, [r3, #0]
 8002674:	021b      	lsls	r3, r3, #8
 8002676:	001a      	movs	r2, r3
 8002678:	69bb      	ldr	r3, [r7, #24]
 800267a:	4313      	orrs	r3, r2
 800267c:	61bb      	str	r3, [r7, #24]
				if (--bcount)
 800267e:	187b      	adds	r3, r7, r1
 8002680:	187a      	adds	r2, r7, r1
 8002682:	8812      	ldrh	r2, [r2, #0]
 8002684:	3a01      	subs	r2, #1
 8002686:	801a      	strh	r2, [r3, #0]
 8002688:	187b      	adds	r3, r7, r1
 800268a:	881b      	ldrh	r3, [r3, #0]
 800268c:	2b00      	cmp	r3, #0
 800268e:	d008      	beq.n	80026a2 <USBhw_WriteTxData+0x19e>
					v |= *src++ << 16;
 8002690:	69fb      	ldr	r3, [r7, #28]
 8002692:	1c5a      	adds	r2, r3, #1
 8002694:	61fa      	str	r2, [r7, #28]
 8002696:	781b      	ldrb	r3, [r3, #0]
 8002698:	041b      	lsls	r3, r3, #16
 800269a:	001a      	movs	r2, r3
 800269c:	69bb      	ldr	r3, [r7, #24]
 800269e:	4313      	orrs	r3, r2
 80026a0:	61bb      	str	r3, [r7, #24]
			}
			*dest++ = v;
 80026a2:	6a3b      	ldr	r3, [r7, #32]
 80026a4:	1d1a      	adds	r2, r3, #4
 80026a6:	623a      	str	r2, [r7, #32]
 80026a8:	69ba      	ldr	r2, [r7, #24]
 80026aa:	601a      	str	r2, [r3, #0]
		}
		epd->ptr = (uint8_t *)src;
 80026ac:	693b      	ldr	r3, [r7, #16]
 80026ae:	69fa      	ldr	r2, [r7, #28]
 80026b0:	601a      	str	r2, [r3, #0]
	}
}
 80026b2:	46c0      	nop			@ (mov r8, r8)
 80026b4:	46bd      	mov	sp, r7
 80026b6:	b00a      	add	sp, #40	@ 0x28
 80026b8:	bdb0      	pop	{r4, r5, r7, pc}
 80026ba:	46c0      	nop			@ (mov r8, r8)
 80026bc:	fc00ffff 	.word	0xfc00ffff

080026c0 <USBhw_StartTx>:

static void USBhw_StartTx(const struct usbdevice_ *usbd, uint8_t epn)
{
 80026c0:	b580      	push	{r7, lr}
 80026c2:	b082      	sub	sp, #8
 80026c4:	af00      	add	r7, sp, #0
 80026c6:	6078      	str	r0, [r7, #4]
 80026c8:	000a      	movs	r2, r1
 80026ca:	1cfb      	adds	r3, r7, #3
 80026cc:	701a      	strb	r2, [r3, #0]
	epn &= EPNUMMSK;
 80026ce:	1cfb      	adds	r3, r7, #3
 80026d0:	1cfa      	adds	r2, r7, #3
 80026d2:	7812      	ldrb	r2, [r2, #0]
 80026d4:	2107      	movs	r1, #7
 80026d6:	400a      	ands	r2, r1
 80026d8:	701a      	strb	r2, [r3, #0]
    USBhw_WriteTxData(usbd, epn);
 80026da:	1cfb      	adds	r3, r7, #3
 80026dc:	781a      	ldrb	r2, [r3, #0]
 80026de:	687b      	ldr	r3, [r7, #4]
 80026e0:	0011      	movs	r1, r2
 80026e2:	0018      	movs	r0, r3
 80026e4:	f7ff ff0e 	bl	8002504 <USBhw_WriteTxData>
    if (epn == 0 && usbd->inep[0].ptr && usbd->inep[0].count == 0)
 80026e8:	1cfb      	adds	r3, r7, #3
 80026ea:	781b      	ldrb	r3, [r3, #0]
 80026ec:	2b00      	cmp	r3, #0
 80026ee:	d113      	bne.n	8002718 <USBhw_StartTx+0x58>
 80026f0:	687b      	ldr	r3, [r7, #4]
 80026f2:	695b      	ldr	r3, [r3, #20]
 80026f4:	681b      	ldr	r3, [r3, #0]
 80026f6:	2b00      	cmp	r3, #0
 80026f8:	d00e      	beq.n	8002718 <USBhw_StartTx+0x58>
 80026fa:	687b      	ldr	r3, [r7, #4]
 80026fc:	695b      	ldr	r3, [r3, #20]
 80026fe:	889b      	ldrh	r3, [r3, #4]
 8002700:	2b00      	cmp	r3, #0
 8002702:	d109      	bne.n	8002718 <USBhw_StartTx+0x58>
    {
    	// last data packet sent over control ep - prepare for status out
    	usbd->devdata->ep0state = USBD_EP0_STATUS_OUT;
 8002704:	687b      	ldr	r3, [r7, #4]
 8002706:	68db      	ldr	r3, [r3, #12]
 8002708:	2205      	movs	r2, #5
 800270a:	70da      	strb	r2, [r3, #3]
    	// TODO: set EPKIND bit as STATUS_OUT? (need to reset it later, so usb_dev should control it)
        USBhw_SetEPState(usbd, 0, USB_EPSTATE_VALID);
 800270c:	687b      	ldr	r3, [r7, #4]
 800270e:	2203      	movs	r2, #3
 8002710:	2100      	movs	r1, #0
 8002712:	0018      	movs	r0, r3
 8002714:	f7ff fc8c 	bl	8002030 <USBhw_SetEPState>
    }
    USBhw_SetEPState(usbd, epn | 0x80, USB_EPSTATE_VALID);
 8002718:	1cfb      	adds	r3, r7, #3
 800271a:	781b      	ldrb	r3, [r3, #0]
 800271c:	2280      	movs	r2, #128	@ 0x80
 800271e:	4252      	negs	r2, r2
 8002720:	4313      	orrs	r3, r2
 8002722:	b2d9      	uxtb	r1, r3
 8002724:	687b      	ldr	r3, [r7, #4]
 8002726:	2203      	movs	r2, #3
 8002728:	0018      	movs	r0, r3
 800272a:	f7ff fc81 	bl	8002030 <USBhw_SetEPState>
}
 800272e:	46c0      	nop			@ (mov r8, r8)
 8002730:	46bd      	mov	sp, r7
 8002732:	b002      	add	sp, #8
 8002734:	bd80      	pop	{r7, pc}
	...

08002738 <USBhw_ReadRxData>:

// read received data packet
static void USBhw_ReadRxData(const struct usbdevice_ *usbd, uint8_t epn)
{
 8002738:	b580      	push	{r7, lr}
 800273a:	b088      	sub	sp, #32
 800273c:	af00      	add	r7, sp, #0
 800273e:	6078      	str	r0, [r7, #4]
 8002740:	000a      	movs	r2, r1
 8002742:	1cfb      	adds	r3, r7, #3
 8002744:	701a      	strb	r2, [r3, #0]
	USBh_TypeDef *usb = (USBh_TypeDef *)usbd->usb;
 8002746:	687b      	ldr	r3, [r7, #4]
 8002748:	681b      	ldr	r3, [r3, #0]
 800274a:	613b      	str	r3, [r7, #16]
	
	// count field in EP descriptor is updated with some delay (H503 errata), so do something else first
	uint8_t *dst = usbd->outep[epn].ptr;
 800274c:	687b      	ldr	r3, [r7, #4]
 800274e:	691a      	ldr	r2, [r3, #16]
 8002750:	1cfb      	adds	r3, r7, #3
 8002752:	781b      	ldrb	r3, [r3, #0]
 8002754:	00db      	lsls	r3, r3, #3
 8002756:	18d3      	adds	r3, r2, r3
 8002758:	681b      	ldr	r3, [r3, #0]
 800275a:	61fb      	str	r3, [r7, #28]
	const uint8_t *src = (const uint8_t *)usb->PMA + usb->BUFDESC[epn].RxAddressCount.addr;
 800275c:	693b      	ldr	r3, [r7, #16]
 800275e:	22f0      	movs	r2, #240	@ 0xf0
 8002760:	0192      	lsls	r2, r2, #6
 8002762:	189a      	adds	r2, r3, r2
 8002764:	1cfb      	adds	r3, r7, #3
 8002766:	781b      	ldrb	r3, [r3, #0]
 8002768:	6939      	ldr	r1, [r7, #16]
 800276a:	20f0      	movs	r0, #240	@ 0xf0
 800276c:	00c0      	lsls	r0, r0, #3
 800276e:	4684      	mov	ip, r0
 8002770:	4463      	add	r3, ip
 8002772:	00db      	lsls	r3, r3, #3
 8002774:	18cb      	adds	r3, r1, r3
 8002776:	685b      	ldr	r3, [r3, #4]
 8002778:	b29b      	uxth	r3, r3
 800277a:	18d3      	adds	r3, r2, r3
 800277c:	60fb      	str	r3, [r7, #12]
	const volatile uint32_t *srcw = (const volatile uint32_t *)src;
 800277e:	68fb      	ldr	r3, [r7, #12]
 8002780:	61bb      	str	r3, [r7, #24]
	uint16_t bcount;
	// "wait for descriptor update"
	while ((bcount = usb->BUFDESC[epn].RxAddressCount.count) == CNT_INVALID) ;
 8002782:	46c0      	nop			@ (mov r8, r8)
 8002784:	1cfb      	adds	r3, r7, #3
 8002786:	781b      	ldrb	r3, [r3, #0]
 8002788:	693a      	ldr	r2, [r7, #16]
 800278a:	21f0      	movs	r1, #240	@ 0xf0
 800278c:	00c9      	lsls	r1, r1, #3
 800278e:	468c      	mov	ip, r1
 8002790:	4463      	add	r3, ip
 8002792:	00db      	lsls	r3, r3, #3
 8002794:	18d3      	adds	r3, r2, r3
 8002796:	685b      	ldr	r3, [r3, #4]
 8002798:	019b      	lsls	r3, r3, #6
 800279a:	0d9b      	lsrs	r3, r3, #22
 800279c:	b29a      	uxth	r2, r3
 800279e:	2116      	movs	r1, #22
 80027a0:	187b      	adds	r3, r7, r1
 80027a2:	801a      	strh	r2, [r3, #0]
 80027a4:	187b      	adds	r3, r7, r1
 80027a6:	881b      	ldrh	r3, [r3, #0]
 80027a8:	4a31      	ldr	r2, [pc, #196]	@ (8002870 <USBhw_ReadRxData+0x138>)
 80027aa:	4293      	cmp	r3, r2
 80027ac:	d0ea      	beq.n	8002784 <USBhw_ReadRxData+0x4c>
	usbd->outep[epn].count = bcount;
 80027ae:	687b      	ldr	r3, [r7, #4]
 80027b0:	691a      	ldr	r2, [r3, #16]
 80027b2:	1cfb      	adds	r3, r7, #3
 80027b4:	781b      	ldrb	r3, [r3, #0]
 80027b6:	00db      	lsls	r3, r3, #3
 80027b8:	18d3      	adds	r3, r2, r3
 80027ba:	187a      	adds	r2, r7, r1
 80027bc:	8812      	ldrh	r2, [r2, #0]
 80027be:	809a      	strh	r2, [r3, #4]
	while (bcount)
 80027c0:	e040      	b.n	8002844 <USBhw_ReadRxData+0x10c>
	{
		uint32_t w = *srcw++;
 80027c2:	69bb      	ldr	r3, [r7, #24]
 80027c4:	1d1a      	adds	r2, r3, #4
 80027c6:	61ba      	str	r2, [r7, #24]
 80027c8:	681b      	ldr	r3, [r3, #0]
 80027ca:	60bb      	str	r3, [r7, #8]
		*dst++ = w;
 80027cc:	69fb      	ldr	r3, [r7, #28]
 80027ce:	1c5a      	adds	r2, r3, #1
 80027d0:	61fa      	str	r2, [r7, #28]
 80027d2:	68ba      	ldr	r2, [r7, #8]
 80027d4:	b2d2      	uxtb	r2, r2
 80027d6:	701a      	strb	r2, [r3, #0]
		if (--bcount)
 80027d8:	2016      	movs	r0, #22
 80027da:	183b      	adds	r3, r7, r0
 80027dc:	183a      	adds	r2, r7, r0
 80027de:	8812      	ldrh	r2, [r2, #0]
 80027e0:	3a01      	subs	r2, #1
 80027e2:	801a      	strh	r2, [r3, #0]
 80027e4:	183b      	adds	r3, r7, r0
 80027e6:	881b      	ldrh	r3, [r3, #0]
 80027e8:	2b00      	cmp	r3, #0
 80027ea:	d02b      	beq.n	8002844 <USBhw_ReadRxData+0x10c>
		{
			*dst++ = w >> 8;
 80027ec:	68bb      	ldr	r3, [r7, #8]
 80027ee:	0a19      	lsrs	r1, r3, #8
 80027f0:	69fb      	ldr	r3, [r7, #28]
 80027f2:	1c5a      	adds	r2, r3, #1
 80027f4:	61fa      	str	r2, [r7, #28]
 80027f6:	b2ca      	uxtb	r2, r1
 80027f8:	701a      	strb	r2, [r3, #0]
			if (--bcount)
 80027fa:	183b      	adds	r3, r7, r0
 80027fc:	183a      	adds	r2, r7, r0
 80027fe:	8812      	ldrh	r2, [r2, #0]
 8002800:	3a01      	subs	r2, #1
 8002802:	801a      	strh	r2, [r3, #0]
 8002804:	183b      	adds	r3, r7, r0
 8002806:	881b      	ldrh	r3, [r3, #0]
 8002808:	2b00      	cmp	r3, #0
 800280a:	d01b      	beq.n	8002844 <USBhw_ReadRxData+0x10c>
			{
				*dst++ = w >> 16;
 800280c:	68bb      	ldr	r3, [r7, #8]
 800280e:	0c19      	lsrs	r1, r3, #16
 8002810:	69fb      	ldr	r3, [r7, #28]
 8002812:	1c5a      	adds	r2, r3, #1
 8002814:	61fa      	str	r2, [r7, #28]
 8002816:	b2ca      	uxtb	r2, r1
 8002818:	701a      	strb	r2, [r3, #0]
				if (--bcount)
 800281a:	183b      	adds	r3, r7, r0
 800281c:	183a      	adds	r2, r7, r0
 800281e:	8812      	ldrh	r2, [r2, #0]
 8002820:	3a01      	subs	r2, #1
 8002822:	801a      	strh	r2, [r3, #0]
 8002824:	183b      	adds	r3, r7, r0
 8002826:	881b      	ldrh	r3, [r3, #0]
 8002828:	2b00      	cmp	r3, #0
 800282a:	d00b      	beq.n	8002844 <USBhw_ReadRxData+0x10c>
				{
					*dst++ = w >> 24;
 800282c:	68bb      	ldr	r3, [r7, #8]
 800282e:	0e19      	lsrs	r1, r3, #24
 8002830:	69fb      	ldr	r3, [r7, #28]
 8002832:	1c5a      	adds	r2, r3, #1
 8002834:	61fa      	str	r2, [r7, #28]
 8002836:	b2ca      	uxtb	r2, r1
 8002838:	701a      	strb	r2, [r3, #0]
					--bcount;
 800283a:	183b      	adds	r3, r7, r0
 800283c:	183a      	adds	r2, r7, r0
 800283e:	8812      	ldrh	r2, [r2, #0]
 8002840:	3a01      	subs	r2, #1
 8002842:	801a      	strh	r2, [r3, #0]
	while (bcount)
 8002844:	2316      	movs	r3, #22
 8002846:	18fb      	adds	r3, r7, r3
 8002848:	881b      	ldrh	r3, [r3, #0]
 800284a:	2b00      	cmp	r3, #0
 800284c:	d1b9      	bne.n	80027c2 <USBhw_ReadRxData+0x8a>
				}
			}
		}
	}
	usb->BUFDESC[epn].RxAddressCount.count = CNT_INVALID;
 800284e:	1cfb      	adds	r3, r7, #3
 8002850:	781b      	ldrb	r3, [r3, #0]
 8002852:	693a      	ldr	r2, [r7, #16]
 8002854:	21f0      	movs	r1, #240	@ 0xf0
 8002856:	00c9      	lsls	r1, r1, #3
 8002858:	468c      	mov	ip, r1
 800285a:	4463      	add	r3, ip
 800285c:	00db      	lsls	r3, r3, #3
 800285e:	18d3      	adds	r3, r2, r3
 8002860:	685a      	ldr	r2, [r3, #4]
 8002862:	4904      	ldr	r1, [pc, #16]	@ (8002874 <USBhw_ReadRxData+0x13c>)
 8002864:	430a      	orrs	r2, r1
 8002866:	605a      	str	r2, [r3, #4]
}
 8002868:	46c0      	nop			@ (mov r8, r8)
 800286a:	46bd      	mov	sp, r7
 800286c:	b008      	add	sp, #32
 800286e:	bd80      	pop	{r7, pc}
 8002870:	000003ff 	.word	0x000003ff
 8002874:	03ff0000 	.word	0x03ff0000

08002878 <USBhw_IRQHandler>:

void USBhw_IRQHandler(const struct usbdevice_ *usbd)
{
 8002878:	b590      	push	{r4, r7, lr}
 800287a:	b089      	sub	sp, #36	@ 0x24
 800287c:	af00      	add	r7, sp, #0
 800287e:	6078      	str	r0, [r7, #4]
	USBh_TypeDef *usb = (USBh_TypeDef *)usbd->usb;
 8002880:	687b      	ldr	r3, [r7, #4]
 8002882:	681b      	ldr	r3, [r3, #0]
 8002884:	61fb      	str	r3, [r7, #28]
	
	uint32_t istr = usb->ISTR & (usb->CNTR | 0xff);
 8002886:	69fb      	ldr	r3, [r7, #28]
 8002888:	6c5a      	ldr	r2, [r3, #68]	@ 0x44
 800288a:	69fb      	ldr	r3, [r7, #28]
 800288c:	6c1b      	ldr	r3, [r3, #64]	@ 0x40
 800288e:	21ff      	movs	r1, #255	@ 0xff
 8002890:	430b      	orrs	r3, r1
 8002892:	4013      	ands	r3, r2
 8002894:	61bb      	str	r3, [r7, #24]
	
    if (istr & USB_ISTR_WKUP)
 8002896:	69ba      	ldr	r2, [r7, #24]
 8002898:	2380      	movs	r3, #128	@ 0x80
 800289a:	015b      	lsls	r3, r3, #5
 800289c:	4013      	ands	r3, r2
 800289e:	d01c      	beq.n	80028da <USBhw_IRQHandler+0x62>
	{
        //usb->CNTR &= ~USB_CNTR_SUSPRDY;	// cleared by hw
        if (~usb->FNR & USB_FNR_RXDP)
 80028a0:	69fb      	ldr	r3, [r7, #28]
 80028a2:	6c9a      	ldr	r2, [r3, #72]	@ 0x48
 80028a4:	2380      	movs	r3, #128	@ 0x80
 80028a6:	021b      	lsls	r3, r3, #8
 80028a8:	4013      	ands	r3, r2
 80028aa:	d113      	bne.n	80028d4 <USBhw_IRQHandler+0x5c>
        {
        	// real resume event
            usb->CNTR &= ~USB_CNTR_SUSPEN;
 80028ac:	69fb      	ldr	r3, [r7, #28]
 80028ae:	6c1b      	ldr	r3, [r3, #64]	@ 0x40
 80028b0:	2208      	movs	r2, #8
 80028b2:	4393      	bics	r3, r2
 80028b4:	001a      	movs	r2, r3
 80028b6:	69fb      	ldr	r3, [r7, #28]
 80028b8:	641a      	str	r2, [r3, #64]	@ 0x40
            if (usb->FNR & USB_FNR_RXDM)
 80028ba:	69fb      	ldr	r3, [r7, #28]
 80028bc:	6c9a      	ldr	r2, [r3, #72]	@ 0x48
 80028be:	2380      	movs	r3, #128	@ 0x80
 80028c0:	01db      	lsls	r3, r3, #7
 80028c2:	4013      	ands	r3, r2
 80028c4:	d006      	beq.n	80028d4 <USBhw_IRQHandler+0x5c>
            {
            	// resume (not reset)
                // callback...
                if (usbd->Resume_Handler)
 80028c6:	687b      	ldr	r3, [r7, #4]
 80028c8:	6a1b      	ldr	r3, [r3, #32]
 80028ca:	2b00      	cmp	r3, #0
 80028cc:	d002      	beq.n	80028d4 <USBhw_IRQHandler+0x5c>
                	usbd->Resume_Handler();
 80028ce:	687b      	ldr	r3, [r7, #4]
 80028d0:	6a1b      	ldr	r3, [r3, #32]
 80028d2:	4798      	blx	r3
                EVTMON('W');
            }
        }
        usb->ISTR = ~USB_ISTR_WKUP;
 80028d4:	69fb      	ldr	r3, [r7, #28]
 80028d6:	4a68      	ldr	r2, [pc, #416]	@ (8002a78 <USBhw_IRQHandler+0x200>)
 80028d8:	645a      	str	r2, [r3, #68]	@ 0x44
    }
    if (istr & USB_ISTR_RESET) // Reset
 80028da:	69ba      	ldr	r2, [r7, #24]
 80028dc:	2380      	movs	r3, #128	@ 0x80
 80028de:	00db      	lsls	r3, r3, #3
 80028e0:	4013      	ands	r3, r2
 80028e2:	d00f      	beq.n	8002904 <USBhw_IRQHandler+0x8c>
	{
        usb->ISTR = ~USB_ISTR_RESET;
 80028e4:	69fb      	ldr	r3, [r7, #28]
 80028e6:	4a65      	ldr	r2, [pc, #404]	@ (8002a7c <USBhw_IRQHandler+0x204>)
 80028e8:	645a      	str	r2, [r3, #68]	@ 0x44
        USBhw_Reset(usbd);
 80028ea:	687b      	ldr	r3, [r7, #4]
 80028ec:	0018      	movs	r0, r3
 80028ee:	f7ff fc61 	bl	80021b4 <USBhw_Reset>
        if (usbd->Reset_Handler)
 80028f2:	687b      	ldr	r3, [r7, #4]
 80028f4:	699b      	ldr	r3, [r3, #24]
 80028f6:	2b00      	cmp	r3, #0
 80028f8:	d100      	bne.n	80028fc <USBhw_IRQHandler+0x84>
 80028fa:	e0b6      	b.n	8002a6a <USBhw_IRQHandler+0x1f2>
        	usbd->Reset_Handler();
 80028fc:	687b      	ldr	r3, [r7, #4]
 80028fe:	699b      	ldr	r3, [r3, #24]
 8002900:	4798      	blx	r3
        EVTMON('R');
        return;
 8002902:	e0b2      	b.n	8002a6a <USBhw_IRQHandler+0x1f2>
    }
    if (istr & USB_ISTR_CTR)	// EP traffic interrupt
 8002904:	69ba      	ldr	r2, [r7, #24]
 8002906:	2380      	movs	r3, #128	@ 0x80
 8002908:	021b      	lsls	r3, r3, #8
 800290a:	4013      	ands	r3, r2
 800290c:	d100      	bne.n	8002910 <USBhw_IRQHandler+0x98>
 800290e:	e07c      	b.n	8002a0a <USBhw_IRQHandler+0x192>
	{
		uint8_t  epn = usb->ISTR & USB_ISTR_IDN;
 8002910:	69fb      	ldr	r3, [r7, #28]
 8002912:	6c5b      	ldr	r3, [r3, #68]	@ 0x44
 8002914:	b2da      	uxtb	r2, r3
 8002916:	2017      	movs	r0, #23
 8002918:	183b      	adds	r3, r7, r0
 800291a:	210f      	movs	r1, #15
 800291c:	400a      	ands	r2, r1
 800291e:	701a      	strb	r2, [r3, #0]
		volatile uint32_t *epr = &usb->EPR[epn];
 8002920:	0001      	movs	r1, r0
 8002922:	187b      	adds	r3, r7, r1
 8002924:	781b      	ldrb	r3, [r3, #0]
 8002926:	009b      	lsls	r3, r3, #2
 8002928:	69fa      	ldr	r2, [r7, #28]
 800292a:	18d3      	adds	r3, r2, r3
 800292c:	613b      	str	r3, [r7, #16]
		uint32_t eprv = *epr;
 800292e:	693b      	ldr	r3, [r7, #16]
 8002930:	681b      	ldr	r3, [r3, #0]
 8002932:	60fb      	str	r3, [r7, #12]
		if (eprv & USB_CHEP_VTTX)	// data sent on In endpoint
 8002934:	68fb      	ldr	r3, [r7, #12]
 8002936:	2280      	movs	r2, #128	@ 0x80
 8002938:	4013      	ands	r3, r2
 800293a:	d045      	beq.n	80029c8 <USBhw_IRQHandler+0x150>
		{
			*epr = (eprv & USB_EPR_CFG) | (USB_EPR_FLAGS & ~USB_CHEP_VTTX);	// clear CTR_TX
 800293c:	68fb      	ldr	r3, [r7, #12]
 800293e:	4a50      	ldr	r2, [pc, #320]	@ (8002a80 <USBhw_IRQHandler+0x208>)
 8002940:	4013      	ands	r3, r2
 8002942:	4a50      	ldr	r2, [pc, #320]	@ (8002a84 <USBhw_IRQHandler+0x20c>)
 8002944:	431a      	orrs	r2, r3
 8002946:	693b      	ldr	r3, [r7, #16]
 8002948:	601a      	str	r2, [r3, #0]
			struct epdata_ *epd = &usbd->inep[epn];
 800294a:	687b      	ldr	r3, [r7, #4]
 800294c:	695a      	ldr	r2, [r3, #20]
 800294e:	187b      	adds	r3, r7, r1
 8002950:	781b      	ldrb	r3, [r3, #0]
 8002952:	00db      	lsls	r3, r3, #3
 8002954:	18d3      	adds	r3, r2, r3
 8002956:	60bb      	str	r3, [r7, #8]

			if (epd->count)	// Continue sending
 8002958:	68bb      	ldr	r3, [r7, #8]
 800295a:	889b      	ldrh	r3, [r3, #4]
 800295c:	2b00      	cmp	r3, #0
 800295e:	d007      	beq.n	8002970 <USBhw_IRQHandler+0xf8>
			{
				//USBlog_recordevt(0x10);
				USBhw_StartTx(usbd, epn);
 8002960:	187b      	adds	r3, r7, r1
 8002962:	781a      	ldrb	r2, [r3, #0]
 8002964:	687b      	ldr	r3, [r7, #4]
 8002966:	0011      	movs	r1, r2
 8002968:	0018      	movs	r0, r3
 800296a:	f7ff fea9 	bl	80026c0 <USBhw_StartTx>
 800296e:	e02b      	b.n	80029c8 <USBhw_IRQHandler+0x150>
			}
			else if (epd->sendzlp)	// send a ZLP
 8002970:	68bb      	ldr	r3, [r7, #8]
 8002972:	799b      	ldrb	r3, [r3, #6]
 8002974:	2b00      	cmp	r3, #0
 8002976:	d00b      	beq.n	8002990 <USBhw_IRQHandler+0x118>
			{
				epd->sendzlp = 0;
 8002978:	68bb      	ldr	r3, [r7, #8]
 800297a:	2200      	movs	r2, #0
 800297c:	719a      	strb	r2, [r3, #6]
				USBhw_StartTx(usbd, epn);
 800297e:	2317      	movs	r3, #23
 8002980:	18fb      	adds	r3, r7, r3
 8002982:	781a      	ldrb	r2, [r3, #0]
 8002984:	687b      	ldr	r3, [r7, #4]
 8002986:	0011      	movs	r1, r2
 8002988:	0018      	movs	r0, r3
 800298a:	f7ff fe99 	bl	80026c0 <USBhw_StartTx>
 800298e:	e01b      	b.n	80029c8 <USBhw_IRQHandler+0x150>
			}
			else	// In transfer completed
			{
				if (epn == 0 && usbd->devdata->setaddress)
 8002990:	2317      	movs	r3, #23
 8002992:	18fb      	adds	r3, r7, r3
 8002994:	781b      	ldrb	r3, [r3, #0]
 8002996:	2b00      	cmp	r3, #0
 8002998:	d10e      	bne.n	80029b8 <USBhw_IRQHandler+0x140>
 800299a:	687b      	ldr	r3, [r7, #4]
 800299c:	68db      	ldr	r3, [r3, #12]
 800299e:	789b      	ldrb	r3, [r3, #2]
 80029a0:	2b00      	cmp	r3, #0
 80029a2:	d009      	beq.n	80029b8 <USBhw_IRQHandler+0x140>
				{
					usb->DADDR = usbd->devdata->setaddress | USB_DADDR_EF;
 80029a4:	687b      	ldr	r3, [r7, #4]
 80029a6:	68db      	ldr	r3, [r3, #12]
 80029a8:	789b      	ldrb	r3, [r3, #2]
 80029aa:	2280      	movs	r2, #128	@ 0x80
 80029ac:	4252      	negs	r2, r2
 80029ae:	4313      	orrs	r3, r2
 80029b0:	b2db      	uxtb	r3, r3
 80029b2:	001a      	movs	r2, r3
 80029b4:	69fb      	ldr	r3, [r7, #28]
 80029b6:	64da      	str	r2, [r3, #76]	@ 0x4c
				    EVTMON('A');
				}
				USBdev_InEPHandler(usbd, epn);
 80029b8:	2317      	movs	r3, #23
 80029ba:	18fb      	adds	r3, r7, r3
 80029bc:	781a      	ldrb	r2, [r3, #0]
 80029be:	687b      	ldr	r3, [r7, #4]
 80029c0:	0011      	movs	r1, r2
 80029c2:	0018      	movs	r0, r3
 80029c4:	f7ff f8fc 	bl	8001bc0 <USBdev_InEPHandler>
			}
		}
		if (eprv & USB_CHEP_VTRX)	// data received on Out endpoint
 80029c8:	68fa      	ldr	r2, [r7, #12]
 80029ca:	2380      	movs	r3, #128	@ 0x80
 80029cc:	021b      	lsls	r3, r3, #8
 80029ce:	4013      	ands	r3, r2
 80029d0:	d01b      	beq.n	8002a0a <USBhw_IRQHandler+0x192>
		{
			USBhw_ReadRxData(usbd, epn);
 80029d2:	2417      	movs	r4, #23
 80029d4:	193b      	adds	r3, r7, r4
 80029d6:	781a      	ldrb	r2, [r3, #0]
 80029d8:	687b      	ldr	r3, [r7, #4]
 80029da:	0011      	movs	r1, r2
 80029dc:	0018      	movs	r0, r3
 80029de:	f7ff feab 	bl	8002738 <USBhw_ReadRxData>
			*epr = (eprv & USB_EPR_CFG) | (USB_EPR_FLAGS & ~USB_CHEP_VTRX);		// clear CTR_RX
 80029e2:	68fb      	ldr	r3, [r7, #12]
 80029e4:	4a26      	ldr	r2, [pc, #152]	@ (8002a80 <USBhw_IRQHandler+0x208>)
 80029e6:	4013      	ands	r3, r2
 80029e8:	4a27      	ldr	r2, [pc, #156]	@ (8002a88 <USBhw_IRQHandler+0x210>)
 80029ea:	431a      	orrs	r2, r3
 80029ec:	693b      	ldr	r3, [r7, #16]
 80029ee:	601a      	str	r2, [r3, #0]
			USBdev_OutEPHandler(usbd, epn, eprv & USB_EP_SETUP);
 80029f0:	68fa      	ldr	r2, [r7, #12]
 80029f2:	2380      	movs	r3, #128	@ 0x80
 80029f4:	011b      	lsls	r3, r3, #4
 80029f6:	4013      	ands	r3, r2
 80029f8:	1e5a      	subs	r2, r3, #1
 80029fa:	4193      	sbcs	r3, r2
 80029fc:	b2da      	uxtb	r2, r3
 80029fe:	193b      	adds	r3, r7, r4
 8002a00:	7819      	ldrb	r1, [r3, #0]
 8002a02:	687b      	ldr	r3, [r7, #4]
 8002a04:	0018      	movs	r0, r3
 8002a06:	f7ff f920 	bl	8001c4a <USBdev_OutEPHandler>
		}
	}
    if (istr & USB_ISTR_SUSP)	// suspend
 8002a0a:	69ba      	ldr	r2, [r7, #24]
 8002a0c:	2380      	movs	r3, #128	@ 0x80
 8002a0e:	011b      	lsls	r3, r3, #4
 8002a10:	4013      	ands	r3, r2
 8002a12:	d01a      	beq.n	8002a4a <USBhw_IRQHandler+0x1d2>
	{
        /* Force low-power mode in the macrocell */
    	usb->CNTR |= USB_CNTR_SUSPEN;
 8002a14:	69fb      	ldr	r3, [r7, #28]
 8002a16:	6c1b      	ldr	r3, [r3, #64]	@ 0x40
 8002a18:	2208      	movs	r2, #8
 8002a1a:	431a      	orrs	r2, r3
 8002a1c:	69fb      	ldr	r3, [r7, #28]
 8002a1e:	641a      	str	r2, [r3, #64]	@ 0x40

        /* clear ISTR after setting CNTR_FSUSP */
        usb->ISTR = ~USB_ISTR_SUSP;
 8002a20:	69fb      	ldr	r3, [r7, #28]
 8002a22:	4a1a      	ldr	r2, [pc, #104]	@ (8002a8c <USBhw_IRQHandler+0x214>)
 8002a24:	645a      	str	r2, [r3, #68]	@ 0x44
        usb->CNTR |= USB_CNTR_SUSPRDY | USB_CNTR_WKUPM;
 8002a26:	69fb      	ldr	r3, [r7, #28]
 8002a28:	6c1b      	ldr	r3, [r3, #64]	@ 0x40
 8002a2a:	4a19      	ldr	r2, [pc, #100]	@ (8002a90 <USBhw_IRQHandler+0x218>)
 8002a2c:	431a      	orrs	r2, r3
 8002a2e:	69fb      	ldr	r3, [r7, #28]
 8002a30:	641a      	str	r2, [r3, #64]	@ 0x40

        reset_in_endpoints(usbd);
 8002a32:	687b      	ldr	r3, [r7, #4]
 8002a34:	0018      	movs	r0, r3
 8002a36:	f7ff fba8 	bl	800218a <reset_in_endpoints>
        // suspend callback should go here
        // callback...
        if (usbd->Suspend_Handler)
 8002a3a:	687b      	ldr	r3, [r7, #4]
 8002a3c:	69db      	ldr	r3, [r3, #28]
 8002a3e:	2b00      	cmp	r3, #0
 8002a40:	d015      	beq.n	8002a6e <USBhw_IRQHandler+0x1f6>
        	usbd->Suspend_Handler();
 8002a42:	687b      	ldr	r3, [r7, #4]
 8002a44:	69db      	ldr	r3, [r3, #28]
 8002a46:	4798      	blx	r3
        EVTMON('S');
        return;
 8002a48:	e011      	b.n	8002a6e <USBhw_IRQHandler+0x1f6>
    }
    if (istr & USB_ISTR_SOF)
 8002a4a:	69ba      	ldr	r2, [r7, #24]
 8002a4c:	2380      	movs	r3, #128	@ 0x80
 8002a4e:	009b      	lsls	r3, r3, #2
 8002a50:	4013      	ands	r3, r2
 8002a52:	d00d      	beq.n	8002a70 <USBhw_IRQHandler+0x1f8>
	{
        usb->ISTR = ~USB_ISTR_SOF;
 8002a54:	69fb      	ldr	r3, [r7, #28]
 8002a56:	4a0f      	ldr	r2, [pc, #60]	@ (8002a94 <USBhw_IRQHandler+0x21c>)
 8002a58:	645a      	str	r2, [r3, #68]	@ 0x44
        if (usbd->SOF_Handler)
 8002a5a:	687b      	ldr	r3, [r7, #4]
 8002a5c:	6a5b      	ldr	r3, [r3, #36]	@ 0x24
 8002a5e:	2b00      	cmp	r3, #0
 8002a60:	d006      	beq.n	8002a70 <USBhw_IRQHandler+0x1f8>
        	usbd->SOF_Handler();
 8002a62:	687b      	ldr	r3, [r7, #4]
 8002a64:	6a5b      	ldr	r3, [r3, #36]	@ 0x24
 8002a66:	4798      	blx	r3
 8002a68:	e002      	b.n	8002a70 <USBhw_IRQHandler+0x1f8>
        return;
 8002a6a:	46c0      	nop			@ (mov r8, r8)
 8002a6c:	e000      	b.n	8002a70 <USBhw_IRQHandler+0x1f8>
        return;
 8002a6e:	46c0      	nop			@ (mov r8, r8)
    }
}
 8002a70:	46bd      	mov	sp, r7
 8002a72:	b009      	add	sp, #36	@ 0x24
 8002a74:	bd90      	pop	{r4, r7, pc}
 8002a76:	46c0      	nop			@ (mov r8, r8)
 8002a78:	ffffefff 	.word	0xffffefff
 8002a7c:	fffffbff 	.word	0xfffffbff
 8002a80:	007f070f 	.word	0x007f070f
 8002a84:	06808000 	.word	0x06808000
 8002a88:	06800080 	.word	0x06800080
 8002a8c:	fffff7ff 	.word	0xfffff7ff
 8002a90:	00001004 	.word	0x00001004
 8002a94:	fffffdff 	.word	0xfffffdff

08002a98 <memcmp>:
 8002a98:	b530      	push	{r4, r5, lr}
 8002a9a:	2400      	movs	r4, #0
 8002a9c:	3901      	subs	r1, #1
 8002a9e:	42a2      	cmp	r2, r4
 8002aa0:	d101      	bne.n	8002aa6 <memcmp+0xe>
 8002aa2:	2000      	movs	r0, #0
 8002aa4:	e005      	b.n	8002ab2 <memcmp+0x1a>
 8002aa6:	5d03      	ldrb	r3, [r0, r4]
 8002aa8:	3401      	adds	r4, #1
 8002aaa:	5d0d      	ldrb	r5, [r1, r4]
 8002aac:	42ab      	cmp	r3, r5
 8002aae:	d0f6      	beq.n	8002a9e <memcmp+0x6>
 8002ab0:	1b58      	subs	r0, r3, r5
 8002ab2:	bd30      	pop	{r4, r5, pc}

08002ab4 <memset>:
 8002ab4:	0003      	movs	r3, r0
 8002ab6:	1882      	adds	r2, r0, r2
 8002ab8:	4293      	cmp	r3, r2
 8002aba:	d100      	bne.n	8002abe <memset+0xa>
 8002abc:	4770      	bx	lr
 8002abe:	7019      	strb	r1, [r3, #0]
 8002ac0:	3301      	adds	r3, #1
 8002ac2:	e7f9      	b.n	8002ab8 <memset+0x4>

08002ac4 <__libc_init_array>:
 8002ac4:	b570      	push	{r4, r5, r6, lr}
 8002ac6:	2600      	movs	r6, #0
 8002ac8:	4c0c      	ldr	r4, [pc, #48]	@ (8002afc <__libc_init_array+0x38>)
 8002aca:	4d0d      	ldr	r5, [pc, #52]	@ (8002b00 <__libc_init_array+0x3c>)
 8002acc:	1b64      	subs	r4, r4, r5
 8002ace:	10a4      	asrs	r4, r4, #2
 8002ad0:	42a6      	cmp	r6, r4
 8002ad2:	d109      	bne.n	8002ae8 <__libc_init_array+0x24>
 8002ad4:	2600      	movs	r6, #0
 8002ad6:	f000 f823 	bl	8002b20 <_init>
 8002ada:	4c0a      	ldr	r4, [pc, #40]	@ (8002b04 <__libc_init_array+0x40>)
 8002adc:	4d0a      	ldr	r5, [pc, #40]	@ (8002b08 <__libc_init_array+0x44>)
 8002ade:	1b64      	subs	r4, r4, r5
 8002ae0:	10a4      	asrs	r4, r4, #2
 8002ae2:	42a6      	cmp	r6, r4
 8002ae4:	d105      	bne.n	8002af2 <__libc_init_array+0x2e>
 8002ae6:	bd70      	pop	{r4, r5, r6, pc}
 8002ae8:	00b3      	lsls	r3, r6, #2
 8002aea:	58eb      	ldr	r3, [r5, r3]
 8002aec:	4798      	blx	r3
 8002aee:	3601      	adds	r6, #1
 8002af0:	e7ee      	b.n	8002ad0 <__libc_init_array+0xc>
 8002af2:	00b3      	lsls	r3, r6, #2
 8002af4:	58eb      	ldr	r3, [r5, r3]
 8002af6:	4798      	blx	r3
 8002af8:	3601      	adds	r6, #1
 8002afa:	e7f2      	b.n	8002ae2 <__libc_init_array+0x1e>
 8002afc:	08002e3c 	.word	0x08002e3c
 8002b00:	08002e3c 	.word	0x08002e3c
 8002b04:	08002e40 	.word	0x08002e40
 8002b08:	08002e3c 	.word	0x08002e3c

08002b0c <memcpy>:
 8002b0c:	2300      	movs	r3, #0
 8002b0e:	b510      	push	{r4, lr}
 8002b10:	429a      	cmp	r2, r3
 8002b12:	d100      	bne.n	8002b16 <memcpy+0xa>
 8002b14:	bd10      	pop	{r4, pc}
 8002b16:	5ccc      	ldrb	r4, [r1, r3]
 8002b18:	54c4      	strb	r4, [r0, r3]
 8002b1a:	3301      	adds	r3, #1
 8002b1c:	e7f8      	b.n	8002b10 <memcpy+0x4>
	...

08002b20 <_init>:
 8002b20:	b5f8      	push	{r3, r4, r5, r6, r7, lr}
 8002b22:	46c0      	nop			@ (mov r8, r8)
 8002b24:	bcf8      	pop	{r3, r4, r5, r6, r7}
 8002b26:	bc08      	pop	{r3}
 8002b28:	469e      	mov	lr, r3
 8002b2a:	4770      	bx	lr

08002b2c <_fini>:
 8002b2c:	b5f8      	push	{r3, r4, r5, r6, r7, lr}
 8002b2e:	46c0      	nop			@ (mov r8, r8)
 8002b30:	bcf8      	pop	{r3, r4, r5, r6, r7}
 8002b32:	bc08      	pop	{r3}
 8002b34:	469e      	mov	lr, r3
 8002b36:	4770      	bx	lr
